
blackmagic:     file format elf32-littlearm


Disassembly of section .text:

08000000 <vector_table>:
 8000000:	00 40 00 20 61 c2 00 08 5d c2 00 08 5b c2 00 08     .@. a...]...[...
	...
 800002c:	5d c2 00 08 00 00 00 00 00 00 00 00 5d c2 00 08     ]...........]...
 800003c:	ff b4 00 08 5b c2 00 08 5b c2 00 08 5b c2 00 08     ....[...[...[...
 800004c:	5b c2 00 08 5b c2 00 08 5b c2 00 08 5b c2 00 08     [...[...[...[...
 800005c:	5b c2 00 08 5b c2 00 08 5b c2 00 08 5b c2 00 08     [...[...[...[...
 800006c:	5b c2 00 08 5b c2 00 08 5b c2 00 08 5b c2 00 08     [...[...[...[...
 800007c:	5b c2 00 08 35 b4 00 08 5b c2 00 08 5b c2 00 08     [...5...[...[...
 800008c:	5b c2 00 08 5b c2 00 08 5b c2 00 08 5b c2 00 08     [...[...[...[...
 800009c:	5b c2 00 08 5b c2 00 08 5b c2 00 08 5b c2 00 08     [...[...[...[...
 80000ac:	5b c2 00 08 33 b4 00 08 5b c2 00 08 5b c2 00 08     [...3...[...[...
 80000bc:	99 b3 00 08                                         ....

080000c0 <adiv5_dp_read>:
		uint8_t fault;
	};
} ADIv5_DP_t;

static inline uint32_t adiv5_dp_read(ADIv5_DP_t *dp, uint16_t addr)
{
 80000c0:	b508      	push	{r3, lr}
	return dp->dp_read(dp, addr);
 80000c2:	6883      	ldr	r3, [r0, #8]
 80000c4:	4798      	blx	r3
}
 80000c6:	bd08      	pop	{r3, pc}

080000c8 <adiv5_dp_low_access>:
	return dp->error(dp);
}

static inline uint32_t adiv5_dp_low_access(struct ADIv5_DP_s *dp, uint8_t RnW,
                                           uint16_t addr, uint32_t value)
{
 80000c8:	b510      	push	{r4, lr}
	return dp->low_access(dp, RnW, addr, value);
 80000ca:	6904      	ldr	r4, [r0, #16]
 80000cc:	47a0      	blx	r4
}
 80000ce:	bd10      	pop	{r4, pc}

080000d0 <extract>:
	adiv5_dp_low_access(ap->dp, ADIV5_LOW_WRITE, ADIV5_AP_TAR, addr);
}

/* Extract read data from data lane based on align and src address */
static void * extract(void *dest, uint32_t src, uint32_t val, enum align align)
{
 80000d0:	b510      	push	{r4, lr}
	switch (align) {
 80000d2:	2b01      	cmp	r3, #1
 80000d4:	d00b      	beq.n	80000ee <extract+0x1e>
 80000d6:	2b00      	cmp	r3, #0
 80000d8:	d003      	beq.n	80000e2 <extract+0x12>
 80000da:	2b02      	cmp	r3, #2
 80000dc:	d10c      	bne.n	80000f8 <extract+0x28>
		break;
	case ALIGN_HALFWORD:
		*(uint16_t *)dest = (val >> ((src & 0x2) << 3) & 0xFFFF);
		break;
	case ALIGN_WORD:
		*(uint32_t *)dest = val;
 80000de:	6002      	str	r2, [r0, #0]
		break;
 80000e0:	e00a      	b.n	80000f8 <extract+0x28>
/* Extract read data from data lane based on align and src address */
static void * extract(void *dest, uint32_t src, uint32_t val, enum align align)
{
	switch (align) {
	case ALIGN_BYTE:
		*(uint8_t *)dest = (val >> ((src & 0x3) << 3) & 0xFF);
 80000e2:	2403      	movs	r4, #3
 80000e4:	4021      	ands	r1, r4
 80000e6:	40a1      	lsls	r1, r4
 80000e8:	40ca      	lsrs	r2, r1
 80000ea:	7002      	strb	r2, [r0, #0]
		break;
 80000ec:	e004      	b.n	80000f8 <extract+0x28>
	case ALIGN_HALFWORD:
		*(uint16_t *)dest = (val >> ((src & 0x2) << 3) & 0xFFFF);
 80000ee:	2402      	movs	r4, #2
 80000f0:	4021      	ands	r1, r4
 80000f2:	00c9      	lsls	r1, r1, #3
 80000f4:	40ca      	lsrs	r2, r1
 80000f6:	8002      	strh	r2, [r0, #0]
		break;
	case ALIGN_WORD:
		*(uint32_t *)dest = val;
		break;
	}
	return (uint8_t *)dest + (1 << align);
 80000f8:	2201      	movs	r2, #1
 80000fa:	409a      	lsls	r2, r3
 80000fc:	1880      	adds	r0, r0, r2
}
 80000fe:	bd10      	pop	{r4, pc}

08000100 <adiv5_dp_ref>:

extern bool cortexa_probe(ADIv5_AP_t *apb, uint32_t debug_base);

void adiv5_dp_ref(ADIv5_DP_t *dp)
{
	dp->refcnt++;
 8000100:	6803      	ldr	r3, [r0, #0]
 8000102:	3301      	adds	r3, #1
 8000104:	6003      	str	r3, [r0, #0]
}
 8000106:	4770      	bx	lr

08000108 <adiv5_ap_ref>:

void adiv5_ap_ref(ADIv5_AP_t *ap)
{
	ap->refcnt++;
 8000108:	6803      	ldr	r3, [r0, #0]
 800010a:	3301      	adds	r3, #1
 800010c:	6003      	str	r3, [r0, #0]
}
 800010e:	4770      	bx	lr

08000110 <adiv5_dp_unref>:

void adiv5_dp_unref(ADIv5_DP_t *dp)
{
 8000110:	b508      	push	{r3, lr}
	if (--(dp->refcnt) == 0)
 8000112:	6803      	ldr	r3, [r0, #0]
 8000114:	3b01      	subs	r3, #1
 8000116:	2b00      	cmp	r3, #0
 8000118:	d001      	beq.n	800011e <adiv5_dp_unref+0xe>
 800011a:	6003      	str	r3, [r0, #0]
 800011c:	e001      	b.n	8000122 <adiv5_dp_unref+0x12>
		free(dp);
 800011e:	f00c fbc1 	bl	800c8a4 <free>
}
 8000122:	bd08      	pop	{r3, pc}

08000124 <adiv5_ap_unref>:

void adiv5_ap_unref(ADIv5_AP_t *ap)
{
	if (--(ap->refcnt) == 0) {
 8000124:	6803      	ldr	r3, [r0, #0]
	if (--(dp->refcnt) == 0)
		free(dp);
}

void adiv5_ap_unref(ADIv5_AP_t *ap)
{
 8000126:	b510      	push	{r4, lr}
	if (--(ap->refcnt) == 0) {
 8000128:	3b01      	subs	r3, #1
 800012a:	6003      	str	r3, [r0, #0]
 800012c:	2b00      	cmp	r3, #0
 800012e:	d106      	bne.n	800013e <adiv5_ap_unref+0x1a>
 8000130:	1c04      	adds	r4, r0, #0
		adiv5_dp_unref(ap->dp);
 8000132:	6840      	ldr	r0, [r0, #4]
 8000134:	f7ff ffec 	bl	8000110 <adiv5_dp_unref>
		free(ap);
 8000138:	1c20      	adds	r0, r4, #0
 800013a:	f00c fbb3 	bl	800c8a4 <free>
	}
}
 800013e:	bd10      	pop	{r4, pc}

08000140 <adiv5_dp_write>:

void adiv5_dp_write(ADIv5_DP_t *dp, uint16_t addr, uint32_t value)
{
 8000140:	b538      	push	{r3, r4, r5, lr}
 8000142:	1c0d      	adds	r5, r1, #0
 8000144:	1c13      	adds	r3, r2, #0
	dp->low_access(dp, ADIV5_LOW_WRITE, addr, value);
 8000146:	6904      	ldr	r4, [r0, #16]
 8000148:	1c2a      	adds	r2, r5, #0
 800014a:	2100      	movs	r1, #0
 800014c:	47a0      	blx	r4
}
 800014e:	bd38      	pop	{r3, r4, r5, pc}

08000150 <adiv5_ap_write>:
		}
	}
}

void adiv5_ap_write(ADIv5_AP_t *ap, uint16_t addr, uint32_t value)
{
 8000150:	b570      	push	{r4, r5, r6, lr}
 8000152:	1c16      	adds	r6, r2, #0
	adiv5_dp_write(ap->dp, ADIV5_DP_SELECT,
 8000154:	22f0      	movs	r2, #240	; 0xf0
		}
	}
}

void adiv5_ap_write(ADIv5_AP_t *ap, uint16_t addr, uint32_t value)
{
 8000156:	1c0d      	adds	r5, r1, #0
 8000158:	1c04      	adds	r4, r0, #0
	adiv5_dp_write(ap->dp, ADIV5_DP_SELECT,
			((uint32_t)ap->apsel << 24)|(addr & 0xF0));
 800015a:	7a03      	ldrb	r3, [r0, #8]
	}
}

void adiv5_ap_write(ADIv5_AP_t *ap, uint16_t addr, uint32_t value)
{
	adiv5_dp_write(ap->dp, ADIV5_DP_SELECT,
 800015c:	400a      	ands	r2, r1
			((uint32_t)ap->apsel << 24)|(addr & 0xF0));
 800015e:	061b      	lsls	r3, r3, #24
	}
}

void adiv5_ap_write(ADIv5_AP_t *ap, uint16_t addr, uint32_t value)
{
	adiv5_dp_write(ap->dp, ADIV5_DP_SELECT,
 8000160:	431a      	orrs	r2, r3
 8000162:	6840      	ldr	r0, [r0, #4]
 8000164:	2108      	movs	r1, #8
 8000166:	f7ff ffeb 	bl	8000140 <adiv5_dp_write>
			((uint32_t)ap->apsel << 24)|(addr & 0xF0));
	adiv5_dp_write(ap->dp, addr, value);
 800016a:	1c29      	adds	r1, r5, #0
 800016c:	1c32      	adds	r2, r6, #0
 800016e:	6860      	ldr	r0, [r4, #4]
 8000170:	f7ff ffe6 	bl	8000140 <adiv5_dp_write>
}
 8000174:	bd70      	pop	{r4, r5, r6, pc}

08000176 <ap_mem_access_setup>:
#define ALIGNOF(x) (((x) & 3) == 0 ? ALIGN_WORD : \
                    (((x) & 1) == 0 ? ALIGN_HALFWORD : ALIGN_BYTE))

/* Program the CSW and TAR for sequencial access at a given width */
static void ap_mem_access_setup(ADIv5_AP_t *ap, uint32_t addr, enum align align)
{
 8000176:	b538      	push	{r3, r4, r5, lr}
 8000178:	1c04      	adds	r4, r0, #0
 800017a:	1c0d      	adds	r5, r1, #0
	uint32_t csw = ap->csw | ADIV5_AP_CSW_ADDRINC_SINGLE;
 800017c:	6983      	ldr	r3, [r0, #24]

	switch (align) {
 800017e:	2a01      	cmp	r2, #1
 8000180:	d003      	beq.n	800018a <ap_mem_access_setup+0x14>
 8000182:	2a02      	cmp	r2, #2
 8000184:	d003      	beq.n	800018e <ap_mem_access_setup+0x18>
                    (((x) & 1) == 0 ? ALIGN_HALFWORD : ALIGN_BYTE))

/* Program the CSW and TAR for sequencial access at a given width */
static void ap_mem_access_setup(ADIv5_AP_t *ap, uint32_t addr, enum align align)
{
	uint32_t csw = ap->csw | ADIV5_AP_CSW_ADDRINC_SINGLE;
 8000186:	2210      	movs	r2, #16
 8000188:	e002      	b.n	8000190 <ap_mem_access_setup+0x1a>
	switch (align) {
	case ALIGN_BYTE:
		csw |= ADIV5_AP_CSW_SIZE_BYTE;
		break;
	case ALIGN_HALFWORD:
		csw |= ADIV5_AP_CSW_SIZE_HALFWORD;
 800018a:	2211      	movs	r2, #17
 800018c:	e000      	b.n	8000190 <ap_mem_access_setup+0x1a>
		break;
	case ALIGN_WORD:
		csw |= ADIV5_AP_CSW_SIZE_WORD;
 800018e:	2212      	movs	r2, #18
		break;
	}
	adiv5_ap_write(ap, ADIV5_AP_CSW, csw);
 8000190:	2180      	movs	r1, #128	; 0x80
		break;
	case ALIGN_HALFWORD:
		csw |= ADIV5_AP_CSW_SIZE_HALFWORD;
		break;
	case ALIGN_WORD:
		csw |= ADIV5_AP_CSW_SIZE_WORD;
 8000192:	431a      	orrs	r2, r3
		break;
	}
	adiv5_ap_write(ap, ADIV5_AP_CSW, csw);
 8000194:	1c20      	adds	r0, r4, #0
 8000196:	0049      	lsls	r1, r1, #1
 8000198:	f7ff ffda 	bl	8000150 <adiv5_ap_write>
	adiv5_dp_low_access(ap->dp, ADIV5_LOW_WRITE, ADIV5_AP_TAR, addr);
 800019c:	2282      	movs	r2, #130	; 0x82
 800019e:	1c2b      	adds	r3, r5, #0
 80001a0:	6860      	ldr	r0, [r4, #4]
 80001a2:	2100      	movs	r1, #0
 80001a4:	0052      	lsls	r2, r2, #1
 80001a6:	f7ff ff8f 	bl	80000c8 <adiv5_dp_low_access>
}
 80001aa:	bd38      	pop	{r3, r4, r5, pc}

080001ac <adiv5_mem_read>:
	return (uint8_t *)dest + (1 << align);
}

void
adiv5_mem_read(ADIv5_AP_t *ap, void *dest, uint32_t src, size_t len)
{
 80001ac:	b5f0      	push	{r4, r5, r6, r7, lr}
 80001ae:	1c0f      	adds	r7, r1, #0
 80001b0:	2103      	movs	r1, #3
 80001b2:	1c15      	adds	r5, r2, #0
 80001b4:	b087      	sub	sp, #28
 80001b6:	1c04      	adds	r4, r0, #0
	uint32_t tmp;
	uint32_t osrc = src;
	enum align align = MIN(ALIGNOF(src), ALIGNOF(len));
 80001b8:	2202      	movs	r2, #2
 80001ba:	420b      	tst	r3, r1
 80001bc:	d001      	beq.n	80001c2 <adiv5_mem_read+0x16>
 80001be:	3a01      	subs	r2, #1
 80001c0:	439a      	bics	r2, r3
 80001c2:	2602      	movs	r6, #2
 80001c4:	420d      	tst	r5, r1
 80001c6:	d001      	beq.n	80001cc <adiv5_mem_read+0x20>
 80001c8:	3e01      	subs	r6, #1
 80001ca:	43ae      	bics	r6, r5

	if (len == 0)
 80001cc:	2b00      	cmp	r3, #0
 80001ce:	d100      	bne.n	80001d2 <adiv5_mem_read+0x26>
 80001d0:	e092      	b.n	80002f8 <adiv5_mem_read+0x14c>
void
adiv5_mem_read(ADIv5_AP_t *ap, void *dest, uint32_t src, size_t len)
{
	uint32_t tmp;
	uint32_t osrc = src;
	enum align align = MIN(ALIGNOF(src), ALIGNOF(len));
 80001d2:	4296      	cmp	r6, r2
 80001d4:	dd00      	ble.n	80001d8 <adiv5_mem_read+0x2c>
 80001d6:	1c16      	adds	r6, r2, #0
 80001d8:	b2f2      	uxtb	r2, r6
 80001da:	9202      	str	r2, [sp, #8]

	if (len == 0)
		return;

	if (align == ALIGN_WORD)
 80001dc:	2e02      	cmp	r6, #2
 80001de:	d13b      	bne.n	8000258 <adiv5_mem_read+0xac>
	{
		len >>= ALIGN_WORD;
 80001e0:	089b      	lsrs	r3, r3, #2
		ap_mem_access_setup(ap, src, ALIGN_WORD);
 80001e2:	1c32      	adds	r2, r6, #0
 80001e4:	1c20      	adds	r0, r4, #0
 80001e6:	1c29      	adds	r1, r5, #0
	if (len == 0)
		return;

	if (align == ALIGN_WORD)
	{
		len >>= ALIGN_WORD;
 80001e8:	9304      	str	r3, [sp, #16]
		ap_mem_access_setup(ap, src, ALIGN_WORD);
 80001ea:	f7ff ffc4 	bl	8000176 <ap_mem_access_setup>
		adiv5_dp_low_access(ap->dp, ADIV5_LOW_READ, ADIV5_AP_DRW, 0);
 80001ee:	2286      	movs	r2, #134	; 0x86
		while (--len) {
 80001f0:	1c2e      	adds	r6, r5, #0

	if (align == ALIGN_WORD)
	{
		len >>= ALIGN_WORD;
		ap_mem_access_setup(ap, src, ALIGN_WORD);
		adiv5_dp_low_access(ap->dp, ADIV5_LOW_READ, ADIV5_AP_DRW, 0);
 80001f2:	2300      	movs	r3, #0
 80001f4:	6860      	ldr	r0, [r4, #4]
 80001f6:	2101      	movs	r1, #1
 80001f8:	0052      	lsls	r2, r2, #1
 80001fa:	f7ff ff65 	bl	80000c8 <adiv5_dp_low_access>
	if (len == 0)
		return;

	if (align == ALIGN_WORD)
	{
		len >>= ALIGN_WORD;
 80001fe:	9b04      	ldr	r3, [sp, #16]
		ap_mem_access_setup(ap, src, ALIGN_WORD);
		adiv5_dp_low_access(ap->dp, ADIV5_LOW_READ, ADIV5_AP_DRW, 0);
		while (--len) {
 8000200:	9503      	str	r5, [sp, #12]
	if (len == 0)
		return;

	if (align == ALIGN_WORD)
	{
		len >>= ALIGN_WORD;
 8000202:	9301      	str	r3, [sp, #4]
		ap_mem_access_setup(ap, src, ALIGN_WORD);
		adiv5_dp_low_access(ap->dp, ADIV5_LOW_READ, ADIV5_AP_DRW, 0);
		while (--len) {
 8000204:	9b01      	ldr	r3, [sp, #4]
 8000206:	3b01      	subs	r3, #1
 8000208:	9301      	str	r3, [sp, #4]
 800020a:	2b00      	cmp	r3, #0
 800020c:	d01d      	beq.n	800024a <adiv5_mem_read+0x9e>
			tmp = adiv5_dp_low_access(ap->dp, ADIV5_LOW_READ, ADIV5_AP_DRW, 0);
 800020e:	2286      	movs	r2, #134	; 0x86
 8000210:	2300      	movs	r3, #0
 8000212:	6860      	ldr	r0, [r4, #4]
 8000214:	2101      	movs	r1, #1
 8000216:	0052      	lsls	r2, r2, #1
 8000218:	f7ff ff56 	bl	80000c8 <adiv5_dp_low_access>
 800021c:	1b7b      	subs	r3, r7, r5
			* ((uint32_t *) dest) = tmp;
 800021e:	5198      	str	r0, [r3, r6]
			dest = dest + 4;

			src += 1 << ALIGN_WORD;
			/* Check for 10 bit address overflow */
			if ((src ^ osrc) & 0xfffffc00) {
 8000220:	9b03      	ldr	r3, [sp, #12]
		while (--len) {
			tmp = adiv5_dp_low_access(ap->dp, ADIV5_LOW_READ, ADIV5_AP_DRW, 0);
			* ((uint32_t *) dest) = tmp;
			dest = dest + 4;

			src += 1 << ALIGN_WORD;
 8000222:	3604      	adds	r6, #4
			/* Check for 10 bit address overflow */
			if ((src ^ osrc) & 0xfffffc00) {
 8000224:	4073      	eors	r3, r6
 8000226:	0a9b      	lsrs	r3, r3, #10
 8000228:	d0ec      	beq.n	8000204 <adiv5_mem_read+0x58>
				osrc = src;
				adiv5_dp_low_access(ap->dp,
 800022a:	2282      	movs	r2, #130	; 0x82
 800022c:	2100      	movs	r1, #0
 800022e:	0052      	lsls	r2, r2, #1
 8000230:	1c33      	adds	r3, r6, #0
 8000232:	6860      	ldr	r0, [r4, #4]
 8000234:	f7ff ff48 	bl	80000c8 <adiv5_dp_low_access>
				                    ADIV5_LOW_WRITE, ADIV5_AP_TAR, src);
				adiv5_dp_low_access(ap->dp,
 8000238:	2286      	movs	r2, #134	; 0x86
 800023a:	6860      	ldr	r0, [r4, #4]
 800023c:	2101      	movs	r1, #1
 800023e:	0052      	lsls	r2, r2, #1
 8000240:	2300      	movs	r3, #0
 8000242:	f7ff ff41 	bl	80000c8 <adiv5_dp_low_access>
			dest = dest + 4;

			src += 1 << ALIGN_WORD;
			/* Check for 10 bit address overflow */
			if ((src ^ osrc) & 0xfffffc00) {
				osrc = src;
 8000246:	9603      	str	r6, [sp, #12]
 8000248:	e7dc      	b.n	8000204 <adiv5_mem_read+0x58>
 800024a:	4a2c      	ldr	r2, [pc, #176]	; (80002fc <adiv5_mem_read+0x150>)
 800024c:	9b04      	ldr	r3, [sp, #16]
 800024e:	4694      	mov	ip, r2
 8000250:	4463      	add	r3, ip
 8000252:	009e      	lsls	r6, r3, #2
 8000254:	19bf      	adds	r7, r7, r6
 8000256:	e042      	b.n	80002de <adiv5_mem_read+0x132>
			}
		}
	}
	else
	{
		len >>= align;
 8000258:	40f3      	lsrs	r3, r6
		ap_mem_access_setup(ap, src, align);
 800025a:	1c20      	adds	r0, r4, #0
 800025c:	1c29      	adds	r1, r5, #0
 800025e:	9a02      	ldr	r2, [sp, #8]
			}
		}
	}
	else
	{
		len >>= align;
 8000260:	9304      	str	r3, [sp, #16]
		ap_mem_access_setup(ap, src, align);
 8000262:	f7ff ff88 	bl	8000176 <ap_mem_access_setup>
		adiv5_dp_low_access(ap->dp, ADIV5_LOW_READ, ADIV5_AP_DRW, 0);
 8000266:	2286      	movs	r2, #134	; 0x86
 8000268:	2300      	movs	r3, #0
 800026a:	6860      	ldr	r0, [r4, #4]
 800026c:	2101      	movs	r1, #1
 800026e:	0052      	lsls	r2, r2, #1
 8000270:	f7ff ff2a 	bl	80000c8 <adiv5_dp_low_access>
		while (--len) {
			tmp = adiv5_dp_low_access(ap->dp, ADIV5_LOW_READ, ADIV5_AP_DRW, 0);
			dest = extract(dest, src, tmp, align);

			src += (1 << align);
 8000274:	2301      	movs	r3, #1
 8000276:	40b3      	lsls	r3, r6
	else
	{
		len >>= align;
		ap_mem_access_setup(ap, src, align);
		adiv5_dp_low_access(ap->dp, ADIV5_LOW_READ, ADIV5_AP_DRW, 0);
		while (--len) {
 8000278:	1c2e      	adds	r6, r5, #0
			tmp = adiv5_dp_low_access(ap->dp, ADIV5_LOW_READ, ADIV5_AP_DRW, 0);
			dest = extract(dest, src, tmp, align);

			src += (1 << align);
 800027a:	9305      	str	r3, [sp, #20]
			}
		}
	}
	else
	{
		len >>= align;
 800027c:	9b04      	ldr	r3, [sp, #16]
		ap_mem_access_setup(ap, src, align);
		adiv5_dp_low_access(ap->dp, ADIV5_LOW_READ, ADIV5_AP_DRW, 0);
		while (--len) {
 800027e:	9503      	str	r5, [sp, #12]
			}
		}
	}
	else
	{
		len >>= align;
 8000280:	9301      	str	r3, [sp, #4]
		ap_mem_access_setup(ap, src, align);
		adiv5_dp_low_access(ap->dp, ADIV5_LOW_READ, ADIV5_AP_DRW, 0);
		while (--len) {
 8000282:	9b01      	ldr	r3, [sp, #4]
 8000284:	3b01      	subs	r3, #1
 8000286:	9301      	str	r3, [sp, #4]
 8000288:	2b00      	cmp	r3, #0
 800028a:	d023      	beq.n	80002d4 <adiv5_mem_read+0x128>
			tmp = adiv5_dp_low_access(ap->dp, ADIV5_LOW_READ, ADIV5_AP_DRW, 0);
 800028c:	2286      	movs	r2, #134	; 0x86
 800028e:	2101      	movs	r1, #1
 8000290:	0052      	lsls	r2, r2, #1
 8000292:	2300      	movs	r3, #0
 8000294:	6860      	ldr	r0, [r4, #4]
 8000296:	f7ff ff17 	bl	80000c8 <adiv5_dp_low_access>
			dest = extract(dest, src, tmp, align);
 800029a:	1c31      	adds	r1, r6, #0
	{
		len >>= align;
		ap_mem_access_setup(ap, src, align);
		adiv5_dp_low_access(ap->dp, ADIV5_LOW_READ, ADIV5_AP_DRW, 0);
		while (--len) {
			tmp = adiv5_dp_low_access(ap->dp, ADIV5_LOW_READ, ADIV5_AP_DRW, 0);
 800029c:	1c02      	adds	r2, r0, #0
			dest = extract(dest, src, tmp, align);
 800029e:	9b02      	ldr	r3, [sp, #8]
 80002a0:	1c38      	adds	r0, r7, #0
 80002a2:	f7ff ff15 	bl	80000d0 <extract>

			src += (1 << align);
 80002a6:	9b05      	ldr	r3, [sp, #20]
		len >>= align;
		ap_mem_access_setup(ap, src, align);
		adiv5_dp_low_access(ap->dp, ADIV5_LOW_READ, ADIV5_AP_DRW, 0);
		while (--len) {
			tmp = adiv5_dp_low_access(ap->dp, ADIV5_LOW_READ, ADIV5_AP_DRW, 0);
			dest = extract(dest, src, tmp, align);
 80002a8:	1c07      	adds	r7, r0, #0

			src += (1 << align);
 80002aa:	18f6      	adds	r6, r6, r3
			/* Check for 10 bit address overflow */
			if ((src ^ osrc) & 0xfffffc00) {
 80002ac:	9b03      	ldr	r3, [sp, #12]
 80002ae:	4073      	eors	r3, r6
 80002b0:	0a9b      	lsrs	r3, r3, #10
 80002b2:	d0e6      	beq.n	8000282 <adiv5_mem_read+0xd6>
				osrc = src;
				adiv5_dp_low_access(ap->dp,
 80002b4:	2282      	movs	r2, #130	; 0x82
 80002b6:	2100      	movs	r1, #0
 80002b8:	0052      	lsls	r2, r2, #1
 80002ba:	1c33      	adds	r3, r6, #0
 80002bc:	6860      	ldr	r0, [r4, #4]
 80002be:	f7ff ff03 	bl	80000c8 <adiv5_dp_low_access>
				                    ADIV5_LOW_WRITE, ADIV5_AP_TAR, src);
				adiv5_dp_low_access(ap->dp,
 80002c2:	2286      	movs	r2, #134	; 0x86
 80002c4:	6860      	ldr	r0, [r4, #4]
 80002c6:	2101      	movs	r1, #1
 80002c8:	0052      	lsls	r2, r2, #1
 80002ca:	2300      	movs	r3, #0
 80002cc:	f7ff fefc 	bl	80000c8 <adiv5_dp_low_access>
			dest = extract(dest, src, tmp, align);

			src += (1 << align);
			/* Check for 10 bit address overflow */
			if ((src ^ osrc) & 0xfffffc00) {
				osrc = src;
 80002d0:	9603      	str	r6, [sp, #12]
 80002d2:	e7d6      	b.n	8000282 <adiv5_mem_read+0xd6>
 80002d4:	9e04      	ldr	r6, [sp, #16]
 80002d6:	9b05      	ldr	r3, [sp, #20]
 80002d8:	3e01      	subs	r6, #1
 80002da:	4373      	muls	r3, r6
 80002dc:	1c1e      	adds	r6, r3, #0
				adiv5_dp_low_access(ap->dp,
				                    ADIV5_LOW_READ, ADIV5_AP_DRW, 0);
			}
		}
	}
	tmp = adiv5_dp_low_access(ap->dp, ADIV5_LOW_READ, ADIV5_DP_RDBUFF, 0);
 80002de:	2101      	movs	r1, #1
 80002e0:	220c      	movs	r2, #12
 80002e2:	2300      	movs	r3, #0
 80002e4:	6860      	ldr	r0, [r4, #4]
 80002e6:	f7ff feef 	bl	80000c8 <adiv5_dp_low_access>
 80002ea:	1975      	adds	r5, r6, r5
 80002ec:	1c02      	adds	r2, r0, #0
	extract(dest, src, tmp, align);
 80002ee:	1c29      	adds	r1, r5, #0
 80002f0:	1c38      	adds	r0, r7, #0
 80002f2:	9b02      	ldr	r3, [sp, #8]
 80002f4:	f7ff feec 	bl	80000d0 <extract>
}
 80002f8:	b007      	add	sp, #28
 80002fa:	bdf0      	pop	{r4, r5, r6, r7, pc}
 80002fc:	3fffffff 	.word	0x3fffffff

08000300 <adiv5_component_probe>:
	return ret;
}

static void adiv5_component_probe(ADIv5_AP_t *ap, uint32_t addr)
{
	addr &= ~3;
 8000300:	2303      	movs	r3, #3
 8000302:	4399      	bics	r1, r3
 8000304:	23fe      	movs	r3, #254	; 0xfe
	adiv5_mem_read(ap, &ret, addr, sizeof(ret));
	return ret;
}

static void adiv5_component_probe(ADIv5_AP_t *ap, uint32_t addr)
{
 8000306:	b5f0      	push	{r4, r5, r6, r7, lr}
	addr &= ~3;
 8000308:	1c0c      	adds	r4, r1, #0
	uint64_t pidr = 0;
 800030a:	2700      	movs	r7, #0
 800030c:	011b      	lsls	r3, r3, #4
 800030e:	18cd      	adds	r5, r1, r3
 8000310:	3310      	adds	r3, #16
 8000312:	18ce      	adds	r6, r1, r3
 8000314:	07cb      	lsls	r3, r1, #31
	adiv5_mem_read(ap, &ret, addr, sizeof(ret));
	return ret;
}

static void adiv5_component_probe(ADIv5_AP_t *ap, uint32_t addr)
{
 8000316:	b089      	sub	sp, #36	; 0x24
 8000318:	1a5b      	subs	r3, r3, r1
 800031a:	9002      	str	r0, [sp, #8]
 800031c:	9303      	str	r3, [sp, #12]
}

static uint32_t adiv5_mem_read32(ADIv5_AP_t *ap, uint32_t addr)
{
	uint32_t ret;
	adiv5_mem_read(ap, &ret, addr, sizeof(ret));
 800031e:	1c2a      	adds	r2, r5, #0
 8000320:	a907      	add	r1, sp, #28
 8000322:	2304      	movs	r3, #4
 8000324:	9802      	ldr	r0, [sp, #8]
 8000326:	f7ff ff41 	bl	80001ac <adiv5_mem_read>
	uint32_t cidr = 0;

	/* Assemble logical Product ID register value. */
	for (int i = 0; i < 4; i++) {
		uint32_t x = adiv5_mem_read32(ap, addr + PIDR0_OFFSET + 4*i);
		pidr |= (x & 0xff) << (i * 8);
 800032a:	9b07      	ldr	r3, [sp, #28]
 800032c:	4959      	ldr	r1, [pc, #356]	; (8000494 <adiv5_component_probe+0x194>)
 800032e:	b2da      	uxtb	r2, r3
 8000330:	9b03      	ldr	r3, [sp, #12]
 8000332:	185b      	adds	r3, r3, r1
 8000334:	195b      	adds	r3, r3, r5
 8000336:	005b      	lsls	r3, r3, #1
 8000338:	409a      	lsls	r2, r3
 800033a:	3504      	adds	r5, #4
 800033c:	4317      	orrs	r7, r2
	addr &= ~3;
	uint64_t pidr = 0;
	uint32_t cidr = 0;

	/* Assemble logical Product ID register value. */
	for (int i = 0; i < 4; i++) {
 800033e:	42b5      	cmp	r5, r6
 8000340:	d1ed      	bne.n	800031e <adiv5_component_probe+0x1e>
}

static uint32_t adiv5_mem_read32(ADIv5_AP_t *ap, uint32_t addr)
{
	uint32_t ret;
	adiv5_mem_read(ap, &ret, addr, sizeof(ret));
 8000342:	23fd      	movs	r3, #253	; 0xfd
 8000344:	011b      	lsls	r3, r3, #4
 8000346:	18e2      	adds	r2, r4, r3
 8000348:	9802      	ldr	r0, [sp, #8]
 800034a:	2304      	movs	r3, #4
 800034c:	a907      	add	r1, sp, #28
 800034e:	f7ff ff2d 	bl	80001ac <adiv5_mem_read>
	return ret;
 8000352:	9b07      	ldr	r3, [sp, #28]

static void adiv5_component_probe(ADIv5_AP_t *ap, uint32_t addr)
{
	addr &= ~3;
	uint64_t pidr = 0;
	uint32_t cidr = 0;
 8000354:	2500      	movs	r5, #0

static uint32_t adiv5_mem_read32(ADIv5_AP_t *ap, uint32_t addr)
{
	uint32_t ret;
	adiv5_mem_read(ap, &ret, addr, sizeof(ret));
	return ret;
 8000356:	9304      	str	r3, [sp, #16]
 8000358:	2380      	movs	r3, #128	; 0x80
 800035a:	015b      	lsls	r3, r3, #5
 800035c:	18e3      	adds	r3, r4, r3
 800035e:	9305      	str	r3, [sp, #20]
}

static uint32_t adiv5_mem_read32(ADIv5_AP_t *ap, uint32_t addr)
{
	uint32_t ret;
	adiv5_mem_read(ap, &ret, addr, sizeof(ret));
 8000360:	1c32      	adds	r2, r6, #0
 8000362:	9802      	ldr	r0, [sp, #8]
 8000364:	a907      	add	r1, sp, #28
 8000366:	2304      	movs	r3, #4
 8000368:	f7ff ff20 	bl	80001ac <adiv5_mem_read>
	}

	/* Assemble logical Component ID register value. */
	for (int i = 0; i < 4; i++) {
		uint32_t x = adiv5_mem_read32(ap, addr + CIDR0_OFFSET + 4*i);
		cidr |= ((uint64_t)(x & 0xff)) << (i * 8);
 800036c:	9b07      	ldr	r3, [sp, #28]
 800036e:	4a4a      	ldr	r2, [pc, #296]	; (8000498 <adiv5_component_probe+0x198>)
 8000370:	b2d8      	uxtb	r0, r3
 8000372:	9b03      	ldr	r3, [sp, #12]
 8000374:	2100      	movs	r1, #0
 8000376:	189a      	adds	r2, r3, r2
 8000378:	1992      	adds	r2, r2, r6
 800037a:	0052      	lsls	r2, r2, #1
 800037c:	f00e fc8a 	bl	800ec94 <__aeabi_llsl>
		uint32_t x = adiv5_mem_read32(ap, addr + PIDR4_OFFSET);
		pidr |= (uint64_t)x << 32;
	}

	/* Assemble logical Component ID register value. */
	for (int i = 0; i < 4; i++) {
 8000380:	9b05      	ldr	r3, [sp, #20]
 8000382:	3604      	adds	r6, #4
		uint32_t x = adiv5_mem_read32(ap, addr + CIDR0_OFFSET + 4*i);
		cidr |= ((uint64_t)(x & 0xff)) << (i * 8);
 8000384:	4305      	orrs	r5, r0
		uint32_t x = adiv5_mem_read32(ap, addr + PIDR4_OFFSET);
		pidr |= (uint64_t)x << 32;
	}

	/* Assemble logical Component ID register value. */
	for (int i = 0; i < 4; i++) {
 8000386:	429e      	cmp	r6, r3
 8000388:	d1ea      	bne.n	8000360 <adiv5_component_probe+0x60>
		uint32_t x = adiv5_mem_read32(ap, addr + CIDR0_OFFSET + 4*i);
		cidr |= ((uint64_t)(x & 0xff)) << (i * 8);
	}

	/* CIDR preamble sanity check */
	if ((cidr & ~CID_CLASS_MASK) != CID_PREAMBLE) {
 800038a:	4a44      	ldr	r2, [pc, #272]	; (800049c <adiv5_component_probe+0x19c>)
 800038c:	4b44      	ldr	r3, [pc, #272]	; (80004a0 <adiv5_component_probe+0x1a0>)
 800038e:	402a      	ands	r2, r5
 8000390:	429a      	cmp	r2, r3
 8000392:	d005      	beq.n	80003a0 <adiv5_component_probe+0xa0>
		DEBUG("0x%"PRIx32": 0x%"PRIx32" <- does not match preamble (0x%X)\n",
 8000394:	1c21      	adds	r1, r4, #0
 8000396:	1c2a      	adds	r2, r5, #0
 8000398:	4842      	ldr	r0, [pc, #264]	; (80004a4 <adiv5_component_probe+0x1a4>)
 800039a:	f00c fb5f 	bl	800ca5c <iprintf>
                      addr, cidr, CID_PREAMBLE);
		return;
 800039e:	e077      	b.n	8000490 <adiv5_component_probe+0x190>
	}

	/* Extract Component ID class nibble */
	uint32_t cid_class = (cidr & CID_CLASS_MASK) >> CID_CLASS_SHIFT;
 80003a0:	042d      	lsls	r5, r5, #16
 80003a2:	0f2e      	lsrs	r6, r5, #28

	if (cid_class == cidc_romtab) { /* ROM table, probe recursively */
 80003a4:	2e01      	cmp	r6, #1
 80003a6:	d118      	bne.n	80003da <adiv5_component_probe+0xda>
 80003a8:	2380      	movs	r3, #128	; 0x80
 80003aa:	1c25      	adds	r5, r4, #0
 80003ac:	00db      	lsls	r3, r3, #3
 80003ae:	18e6      	adds	r6, r4, r3
}

static uint32_t adiv5_mem_read32(ADIv5_AP_t *ap, uint32_t addr)
{
	uint32_t ret;
	adiv5_mem_read(ap, &ret, addr, sizeof(ret));
 80003b0:	a907      	add	r1, sp, #28
 80003b2:	9802      	ldr	r0, [sp, #8]
 80003b4:	1c2a      	adds	r2, r5, #0
 80003b6:	2304      	movs	r3, #4
 80003b8:	f7ff fef8 	bl	80001ac <adiv5_mem_read>
	return ret;
 80003bc:	9907      	ldr	r1, [sp, #28]
	uint32_t cid_class = (cidr & CID_CLASS_MASK) >> CID_CLASS_SHIFT;

	if (cid_class == cidc_romtab) { /* ROM table, probe recursively */
		for (int i = 0; i < 256; i++) {
			uint32_t entry = adiv5_mem_read32(ap, addr + i*4);
			if (entry == 0)
 80003be:	2900      	cmp	r1, #0
 80003c0:	d066      	beq.n	8000490 <adiv5_component_probe+0x190>
				break;

			if ((entry & 1) == 0)
 80003c2:	07cb      	lsls	r3, r1, #31
 80003c4:	d505      	bpl.n	80003d2 <adiv5_component_probe+0xd2>
				continue;

			adiv5_component_probe(ap, addr + (entry & ~0xfff));
 80003c6:	0b09      	lsrs	r1, r1, #12
 80003c8:	0309      	lsls	r1, r1, #12
 80003ca:	1861      	adds	r1, r4, r1
 80003cc:	9802      	ldr	r0, [sp, #8]
 80003ce:	f7ff ff97 	bl	8000300 <adiv5_component_probe>
 80003d2:	3504      	adds	r5, #4

	/* Extract Component ID class nibble */
	uint32_t cid_class = (cidr & CID_CLASS_MASK) >> CID_CLASS_SHIFT;

	if (cid_class == cidc_romtab) { /* ROM table, probe recursively */
		for (int i = 0; i < 256; i++) {
 80003d4:	42b5      	cmp	r5, r6
 80003d6:	d1eb      	bne.n	80003b0 <adiv5_component_probe+0xb0>
 80003d8:	e05a      	b.n	8000490 <adiv5_component_probe+0x190>
		}
	} else {
		/* Check if the component was designed by ARM, we currently do not support,
		 * any components by other designers.
		 */
		if ((pidr & ~(PIDR_REV_MASK | PIDR_PN_MASK)) != PIDR_ARM_BITS) {
 80003da:	23ff      	movs	r3, #255	; 0xff
 80003dc:	22bb      	movs	r2, #187	; 0xbb
 80003de:	031b      	lsls	r3, r3, #12
 80003e0:	403b      	ands	r3, r7
 80003e2:	0312      	lsls	r2, r2, #12
 80003e4:	4293      	cmp	r3, r2
 80003e6:	d102      	bne.n	80003ee <adiv5_component_probe+0xee>
 80003e8:	9b04      	ldr	r3, [sp, #16]
 80003ea:	2b04      	cmp	r3, #4
 80003ec:	d006      	beq.n	80003fc <adiv5_component_probe+0xfc>
			DEBUG("0x%"PRIx32": 0x%"PRIx64" <- does not match ARM JEP-106\n",
 80003ee:	1c21      	adds	r1, r4, #0
 80003f0:	1c3a      	adds	r2, r7, #0
 80003f2:	9b04      	ldr	r3, [sp, #16]
 80003f4:	482c      	ldr	r0, [pc, #176]	; (80004a8 <adiv5_component_probe+0x1a8>)
 80003f6:	f00c fb31 	bl	800ca5c <iprintf>
                              addr, pidr);
			return;
 80003fa:	e049      	b.n	8000490 <adiv5_component_probe+0x190>
		}

		/* Extract part number from the part id register. */
		uint16_t part_number = pidr & PIDR_PN_MASK;
 80003fc:	0539      	lsls	r1, r7, #20
 80003fe:	0d0b      	lsrs	r3, r1, #20
 8000400:	469c      	mov	ip, r3
		/* Find the part number in our part list and run the appropriate probe
		 * routine if applicable.
		 */
		int i;
		for (i = 0; pidr_pn_bits[i].arch != aa_end; i++) {
 8000402:	2200      	movs	r2, #0
 8000404:	230c      	movs	r3, #12
 8000406:	4353      	muls	r3, r2
 8000408:	4828      	ldr	r0, [pc, #160]	; (80004ac <adiv5_component_probe+0x1ac>)
 800040a:	18c5      	adds	r5, r0, r3
 800040c:	78a9      	ldrb	r1, [r5, #2]
 800040e:	9103      	str	r1, [sp, #12]
 8000410:	2903      	cmp	r1, #3
 8000412:	d032      	beq.n	800047a <adiv5_component_probe+0x17a>
			if (pidr_pn_bits[i].part_number == part_number) {
 8000414:	5a1b      	ldrh	r3, [r3, r0]
 8000416:	4563      	cmp	r3, ip
 8000418:	d119      	bne.n	800044e <adiv5_component_probe+0x14e>
				DEBUG("0x%"PRIx32": %s - %s %s\n", addr,
 800041a:	4f25      	ldr	r7, [pc, #148]	; (80004b0 <adiv5_component_probe+0x1b0>)
 800041c:	00b3      	lsls	r3, r6, #2
 800041e:	18fb      	adds	r3, r7, r3
 8000420:	691b      	ldr	r3, [r3, #16]
 8000422:	4824      	ldr	r0, [pc, #144]	; (80004b4 <adiv5_component_probe+0x1b4>)
 8000424:	9304      	str	r3, [sp, #16]
 8000426:	68ab      	ldr	r3, [r5, #8]
 8000428:	1c21      	adds	r1, r4, #0
 800042a:	9300      	str	r3, [sp, #0]
 800042c:	9a04      	ldr	r2, [sp, #16]
 800042e:	686b      	ldr	r3, [r5, #4]
 8000430:	f00c fb14 	bl	800ca5c <iprintf>
				      pidr_pn_bits[i].type,
				      pidr_pn_bits[i].full);
				/* Perform sanity check, if we know what to expect as component ID
				 * class.
				 */
				if ((pidr_pn_bits[i].cidc != cidc_unknown) &&
 8000434:	78eb      	ldrb	r3, [r5, #3]
 8000436:	2b10      	cmp	r3, #16
 8000438:	d00b      	beq.n	8000452 <adiv5_component_probe+0x152>
 800043a:	429e      	cmp	r6, r3
 800043c:	d009      	beq.n	8000452 <adiv5_component_probe+0x152>
				    (cid_class != pidr_pn_bits[i].cidc)) {
					DEBUG("WARNING: \"%s\" !match expected \"%s\"\n",
 800043e:	009b      	lsls	r3, r3, #2
 8000440:	18ff      	adds	r7, r7, r3
 8000442:	9904      	ldr	r1, [sp, #16]
 8000444:	693a      	ldr	r2, [r7, #16]
 8000446:	481c      	ldr	r0, [pc, #112]	; (80004b8 <adiv5_component_probe+0x1b8>)
 8000448:	f00c fb08 	bl	800ca5c <iprintf>
 800044c:	e001      	b.n	8000452 <adiv5_component_probe+0x152>
		uint16_t part_number = pidr & PIDR_PN_MASK;
		/* Find the part number in our part list and run the appropriate probe
		 * routine if applicable.
		 */
		int i;
		for (i = 0; pidr_pn_bits[i].arch != aa_end; i++) {
 800044e:	3201      	adds	r2, #1
 8000450:	e7d8      	b.n	8000404 <adiv5_component_probe+0x104>
				    (cid_class != pidr_pn_bits[i].cidc)) {
					DEBUG("WARNING: \"%s\" !match expected \"%s\"\n",
					      cidc_debug_strings[cid_class],
					      cidc_debug_strings[pidr_pn_bits[i].cidc]);
				}
				switch (pidr_pn_bits[i].arch) {
 8000452:	9b03      	ldr	r3, [sp, #12]
 8000454:	2b01      	cmp	r3, #1
 8000456:	d106      	bne.n	8000466 <adiv5_component_probe+0x166>
				case aa_cortexm:
					DEBUG("-> cortexm_probe\n");
 8000458:	4818      	ldr	r0, [pc, #96]	; (80004bc <adiv5_component_probe+0x1bc>)
 800045a:	f00c fb8f 	bl	800cb7c <puts>
					cortexm_probe(ap);
 800045e:	9802      	ldr	r0, [sp, #8]
 8000460:	f001 ff33 	bl	80022ca <cortexm_probe>
					break;
 8000464:	e014      	b.n	8000490 <adiv5_component_probe+0x190>
				    (cid_class != pidr_pn_bits[i].cidc)) {
					DEBUG("WARNING: \"%s\" !match expected \"%s\"\n",
					      cidc_debug_strings[cid_class],
					      cidc_debug_strings[pidr_pn_bits[i].cidc]);
				}
				switch (pidr_pn_bits[i].arch) {
 8000466:	2b02      	cmp	r3, #2
 8000468:	d112      	bne.n	8000490 <adiv5_component_probe+0x190>
				case aa_cortexm:
					DEBUG("-> cortexm_probe\n");
					cortexm_probe(ap);
					break;
				case aa_cortexa:
					DEBUG("-> cortexa_probe\n");
 800046a:	4815      	ldr	r0, [pc, #84]	; (80004c0 <adiv5_component_probe+0x1c0>)
 800046c:	f00c fb86 	bl	800cb7c <puts>
					cortexa_probe(ap, addr);
 8000470:	9802      	ldr	r0, [sp, #8]
 8000472:	1c21      	adds	r1, r4, #0
 8000474:	f001 f966 	bl	8001744 <cortexa_probe>
					break;
 8000478:	e00a      	b.n	8000490 <adiv5_component_probe+0x190>
				}
				break;
			}
		}
		if (pidr_pn_bits[i].arch == aa_end) {
			DEBUG("0x%"PRIx32": %s - Unknown (PIDR = 0x%"PRIx64")\n", addr,
 800047a:	4a0d      	ldr	r2, [pc, #52]	; (80004b0 <adiv5_component_probe+0x1b0>)
 800047c:	00b3      	lsls	r3, r6, #2
 800047e:	18d3      	adds	r3, r2, r3
 8000480:	9a04      	ldr	r2, [sp, #16]
 8000482:	9700      	str	r7, [sp, #0]
 8000484:	9201      	str	r2, [sp, #4]
 8000486:	480f      	ldr	r0, [pc, #60]	; (80004c4 <adiv5_component_probe+0x1c4>)
 8000488:	1c21      	adds	r1, r4, #0
 800048a:	691a      	ldr	r2, [r3, #16]
 800048c:	f00c fae6 	bl	800ca5c <iprintf>
			      cidc_debug_strings[cid_class], pidr);
		}
	}
}
 8000490:	b009      	add	sp, #36	; 0x24
 8000492:	bdf0      	pop	{r4, r5, r6, r7, pc}
 8000494:	7ffff020 	.word	0x7ffff020
 8000498:	7ffff010 	.word	0x7ffff010
 800049c:	ffff0fff 	.word	0xffff0fff
 80004a0:	b105000d 	.word	0xb105000d
 80004a4:	0800f3e4 	.word	0x0800f3e4
 80004a8:	0800f414 	.word	0x0800f414
 80004ac:	0800f190 	.word	0x0800f190
 80004b0:	0800f390 	.word	0x0800f390
 80004b4:	0800f441 	.word	0x0800f441
 80004b8:	0800f454 	.word	0x0800f454
 80004bc:	0800f478 	.word	0x0800f478
 80004c0:	0800f489 	.word	0x0800f489
 80004c4:	0800f49a 	.word	0x0800f49a

080004c8 <adiv5_mem_write>:

uint32_t max_write;

void
adiv5_mem_write(ADIv5_AP_t *ap, uint32_t dest, const void *src, size_t len)
{
 80004c8:	b5f0      	push	{r4, r5, r6, r7, lr}
 80004ca:	1c0e      	adds	r6, r1, #0
 80004cc:	2103      	movs	r1, #3
 80004ce:	b085      	sub	sp, #20
 80004d0:	9202      	str	r2, [sp, #8]
 80004d2:	1c07      	adds	r7, r0, #0
	uint32_t odest = dest;
	enum align align = MIN(ALIGNOF(dest), ALIGNOF(len));
 80004d4:	2202      	movs	r2, #2
 80004d6:	420b      	tst	r3, r1
 80004d8:	d001      	beq.n	80004de <adiv5_mem_write+0x16>
 80004da:	3a01      	subs	r2, #1
 80004dc:	439a      	bics	r2, r3
 80004de:	2402      	movs	r4, #2
 80004e0:	420e      	tst	r6, r1
 80004e2:	d001      	beq.n	80004e8 <adiv5_mem_write+0x20>
 80004e4:	3c01      	subs	r4, #1
 80004e6:	43b4      	bics	r4, r6
 80004e8:	4294      	cmp	r4, r2
 80004ea:	dd00      	ble.n	80004ee <adiv5_mem_write+0x26>
 80004ec:	1c14      	adds	r4, r2, #0
	if (len > max_write)
 80004ee:	4921      	ldr	r1, [pc, #132]	; (8000574 <adiv5_mem_write+0xac>)

void
adiv5_mem_write(ADIv5_AP_t *ap, uint32_t dest, const void *src, size_t len)
{
	uint32_t odest = dest;
	enum align align = MIN(ALIGNOF(dest), ALIGNOF(len));
 80004f0:	b2e2      	uxtb	r2, r4
	if (len > max_write)
 80004f2:	6808      	ldr	r0, [r1, #0]
 80004f4:	4283      	cmp	r3, r0
 80004f6:	d900      	bls.n	80004fa <adiv5_mem_write+0x32>
		max_write = len;
 80004f8:	600b      	str	r3, [r1, #0]
	                
	len >>= align;
 80004fa:	40e3      	lsrs	r3, r4
	ap_mem_access_setup(ap, dest, align);
 80004fc:	1c38      	adds	r0, r7, #0
 80004fe:	1c31      	adds	r1, r6, #0
	uint32_t odest = dest;
	enum align align = MIN(ALIGNOF(dest), ALIGNOF(len));
	if (len > max_write)
		max_write = len;
	                
	len >>= align;
 8000500:	1c1d      	adds	r5, r3, #0
	ap_mem_access_setup(ap, dest, align);
 8000502:	f7ff fe38 	bl	8000176 <ap_mem_access_setup>
			break;
		case ALIGN_WORD:
			tmp = *(uint32_t *)src;
			break;
		}
		src = (uint8_t *)src + (1 << align);
 8000506:	2301      	movs	r3, #1
 8000508:	40a3      	lsls	r3, r4
	if (len > max_write)
		max_write = len;
	                
	len >>= align;
	ap_mem_access_setup(ap, dest, align);
	while (len--) {
 800050a:	9500      	str	r5, [sp, #0]
 800050c:	1c35      	adds	r5, r6, #0
			break;
		case ALIGN_WORD:
			tmp = *(uint32_t *)src;
			break;
		}
		src = (uint8_t *)src + (1 << align);
 800050e:	9303      	str	r3, [sp, #12]
	if (len > max_write)
		max_write = len;
	                
	len >>= align;
	ap_mem_access_setup(ap, dest, align);
	while (len--) {
 8000510:	9601      	str	r6, [sp, #4]
 8000512:	9a02      	ldr	r2, [sp, #8]
 8000514:	1bab      	subs	r3, r5, r6
 8000516:	18d3      	adds	r3, r2, r3
 8000518:	9a00      	ldr	r2, [sp, #0]
 800051a:	2a00      	cmp	r2, #0
 800051c:	d028      	beq.n	8000570 <adiv5_mem_write+0xa8>
		uint32_t tmp = 0;
		/* Pack data into correct data lane */
		switch (align) {
 800051e:	2c01      	cmp	r4, #1
 8000520:	d006      	beq.n	8000530 <adiv5_mem_write+0x68>
 8000522:	2c02      	cmp	r4, #2
 8000524:	d00b      	beq.n	800053e <adiv5_mem_write+0x76>
 8000526:	9b02      	ldr	r3, [sp, #8]
 8000528:	1b9b      	subs	r3, r3, r6
		case ALIGN_BYTE:
			tmp = ((uint32_t)*(uint8_t *)src) << ((dest & 3) << 3);
 800052a:	5d5a      	ldrb	r2, [r3, r5]
 800052c:	2303      	movs	r3, #3
 800052e:	e001      	b.n	8000534 <adiv5_mem_write+0x6c>
			break;
		case ALIGN_HALFWORD:
			tmp = ((uint32_t)*(uint16_t *)src) << ((dest & 2) << 3);
 8000530:	881a      	ldrh	r2, [r3, #0]
 8000532:	2302      	movs	r3, #2
 8000534:	402b      	ands	r3, r5
 8000536:	00db      	lsls	r3, r3, #3
 8000538:	409a      	lsls	r2, r3
 800053a:	1c13      	adds	r3, r2, #0
			break;
 800053c:	e000      	b.n	8000540 <adiv5_mem_write+0x78>
		case ALIGN_WORD:
			tmp = *(uint32_t *)src;
 800053e:	681b      	ldr	r3, [r3, #0]
			break;
		}
		src = (uint8_t *)src + (1 << align);
		dest += (1 << align);
 8000540:	9a03      	ldr	r2, [sp, #12]
		adiv5_dp_low_access(ap->dp, ADIV5_LOW_WRITE, ADIV5_AP_DRW, tmp);
 8000542:	6878      	ldr	r0, [r7, #4]
		case ALIGN_WORD:
			tmp = *(uint32_t *)src;
			break;
		}
		src = (uint8_t *)src + (1 << align);
		dest += (1 << align);
 8000544:	18ad      	adds	r5, r5, r2
		adiv5_dp_low_access(ap->dp, ADIV5_LOW_WRITE, ADIV5_AP_DRW, tmp);
 8000546:	2286      	movs	r2, #134	; 0x86
 8000548:	2100      	movs	r1, #0
 800054a:	0052      	lsls	r2, r2, #1
 800054c:	f7ff fdbc 	bl	80000c8 <adiv5_dp_low_access>

		/* Check for 10 bit address overflow */
		if ((dest ^ odest) & 0xfffffc00) {
 8000550:	9b01      	ldr	r3, [sp, #4]
 8000552:	406b      	eors	r3, r5
 8000554:	0a9b      	lsrs	r3, r3, #10
 8000556:	d007      	beq.n	8000568 <adiv5_mem_write+0xa0>
			odest = dest;
			adiv5_dp_low_access(ap->dp,
 8000558:	2282      	movs	r2, #130	; 0x82
 800055a:	6878      	ldr	r0, [r7, #4]
 800055c:	2100      	movs	r1, #0
 800055e:	0052      	lsls	r2, r2, #1
 8000560:	1c2b      	adds	r3, r5, #0
 8000562:	f7ff fdb1 	bl	80000c8 <adiv5_dp_low_access>
		dest += (1 << align);
		adiv5_dp_low_access(ap->dp, ADIV5_LOW_WRITE, ADIV5_AP_DRW, tmp);

		/* Check for 10 bit address overflow */
		if ((dest ^ odest) & 0xfffffc00) {
			odest = dest;
 8000566:	9501      	str	r5, [sp, #4]
 8000568:	9b00      	ldr	r3, [sp, #0]
 800056a:	3b01      	subs	r3, #1
 800056c:	9300      	str	r3, [sp, #0]
 800056e:	e7d0      	b.n	8000512 <adiv5_mem_write+0x4a>
			adiv5_dp_low_access(ap->dp,
					ADIV5_LOW_WRITE, ADIV5_AP_TAR, dest);
		}
	}
}
 8000570:	b005      	add	sp, #20
 8000572:	bdf0      	pop	{r4, r5, r6, r7, pc}
 8000574:	20001d94 	.word	0x20001d94

08000578 <adiv5_ap_read>:
}

uint32_t adiv5_ap_read(ADIv5_AP_t *ap, uint16_t addr)
{
	uint32_t ret;
	adiv5_dp_write(ap->dp, ADIV5_DP_SELECT,
 8000578:	22f0      	movs	r2, #240	; 0xf0
			((uint32_t)ap->apsel << 24)|(addr & 0xF0));
	adiv5_dp_write(ap->dp, addr, value);
}

uint32_t adiv5_ap_read(ADIv5_AP_t *ap, uint16_t addr)
{
 800057a:	b538      	push	{r3, r4, r5, lr}
 800057c:	1c0d      	adds	r5, r1, #0
 800057e:	1c04      	adds	r4, r0, #0
	uint32_t ret;
	adiv5_dp_write(ap->dp, ADIV5_DP_SELECT,
			((uint32_t)ap->apsel << 24)|(addr & 0xF0));
 8000580:	7a03      	ldrb	r3, [r0, #8]
}

uint32_t adiv5_ap_read(ADIv5_AP_t *ap, uint16_t addr)
{
	uint32_t ret;
	adiv5_dp_write(ap->dp, ADIV5_DP_SELECT,
 8000582:	400a      	ands	r2, r1
			((uint32_t)ap->apsel << 24)|(addr & 0xF0));
 8000584:	061b      	lsls	r3, r3, #24
}

uint32_t adiv5_ap_read(ADIv5_AP_t *ap, uint16_t addr)
{
	uint32_t ret;
	adiv5_dp_write(ap->dp, ADIV5_DP_SELECT,
 8000586:	431a      	orrs	r2, r3
 8000588:	6840      	ldr	r0, [r0, #4]
 800058a:	2108      	movs	r1, #8
 800058c:	f7ff fdd8 	bl	8000140 <adiv5_dp_write>
			((uint32_t)ap->apsel << 24)|(addr & 0xF0));
	ret = adiv5_dp_read(ap->dp, addr);
 8000590:	1c29      	adds	r1, r5, #0
 8000592:	6860      	ldr	r0, [r4, #4]
 8000594:	f7ff fd94 	bl	80000c0 <adiv5_dp_read>
	return ret;
}
 8000598:	bd38      	pop	{r3, r4, r5, pc}

0800059a <adiv5_new_ap>:
		}
	}
}

ADIv5_AP_t *adiv5_new_ap(ADIv5_DP_t *dp, uint8_t apsel)
{
 800059a:	b5f0      	push	{r4, r5, r6, r7, lr}
 800059c:	b08b      	sub	sp, #44	; 0x2c
	ADIv5_AP_t *ap, tmpap;

	/* Assume valid and try to read IDR */
	memset(&tmpap, 0, sizeof(tmpap));
 800059e:	ad03      	add	r5, sp, #12
		}
	}
}

ADIv5_AP_t *adiv5_new_ap(ADIv5_DP_t *dp, uint8_t apsel)
{
 80005a0:	1c06      	adds	r6, r0, #0
 80005a2:	1c0f      	adds	r7, r1, #0
	ADIv5_AP_t *ap, tmpap;

	/* Assume valid and try to read IDR */
	memset(&tmpap, 0, sizeof(tmpap));
 80005a4:	221c      	movs	r2, #28
 80005a6:	2100      	movs	r1, #0
 80005a8:	1c28      	adds	r0, r5, #0
 80005aa:	f00c f9a2 	bl	800c8f2 <memset>
	tmpap.dp = dp;
	tmpap.apsel = apsel;
	tmpap.idr = adiv5_ap_read(&tmpap, ADIV5_AP_IDR);
 80005ae:	21fe      	movs	r1, #254	; 0xfe
 80005b0:	1c28      	adds	r0, r5, #0
 80005b2:	0049      	lsls	r1, r1, #1
{
	ADIv5_AP_t *ap, tmpap;

	/* Assume valid and try to read IDR */
	memset(&tmpap, 0, sizeof(tmpap));
	tmpap.dp = dp;
 80005b4:	606e      	str	r6, [r5, #4]
	tmpap.apsel = apsel;
 80005b6:	722f      	strb	r7, [r5, #8]
	tmpap.idr = adiv5_ap_read(&tmpap, ADIV5_AP_IDR);
 80005b8:	f7ff ffde 	bl	8000578 <adiv5_ap_read>
 80005bc:	1e03      	subs	r3, r0, #0
 80005be:	60e8      	str	r0, [r5, #12]

	if(!tmpap.idr) /* IDR Invalid - Should we not continue here? */
 80005c0:	d046      	beq.n	8000650 <adiv5_new_ap+0xb6>
		return NULL;

	/* Check for ARM Mem-AP */
	uint16_t mfg = (tmpap.idr >> 17) & 0x3ff;
	uint8_t cls = (tmpap.idr >> 13) & 0xf;
 80005c2:	220f      	movs	r2, #15
 80005c4:	0b59      	lsrs	r1, r3, #13
 80005c6:	4011      	ands	r1, r2
	uint8_t type = tmpap.idr & 0xf;
	if (mfg != 0x23B) /* Ditch if not ARM */
 80005c8:	4a22      	ldr	r2, [pc, #136]	; (8000654 <adiv5_new_ap+0xba>)
	if(!tmpap.idr) /* IDR Invalid - Should we not continue here? */
		return NULL;

	/* Check for ARM Mem-AP */
	uint16_t mfg = (tmpap.idr >> 17) & 0x3ff;
	uint8_t cls = (tmpap.idr >> 13) & 0xf;
 80005ca:	1c0c      	adds	r4, r1, #0

	if(!tmpap.idr) /* IDR Invalid - Should we not continue here? */
		return NULL;

	/* Check for ARM Mem-AP */
	uint16_t mfg = (tmpap.idr >> 17) & 0x3ff;
 80005cc:	0159      	lsls	r1, r3, #5
	uint8_t cls = (tmpap.idr >> 13) & 0xf;
	uint8_t type = tmpap.idr & 0xf;
	if (mfg != 0x23B) /* Ditch if not ARM */
 80005ce:	0d89      	lsrs	r1, r1, #22
	tmpap.dp = dp;
	tmpap.apsel = apsel;
	tmpap.idr = adiv5_ap_read(&tmpap, ADIV5_AP_IDR);

	if(!tmpap.idr) /* IDR Invalid - Should we not continue here? */
		return NULL;
 80005d0:	2000      	movs	r0, #0

	/* Check for ARM Mem-AP */
	uint16_t mfg = (tmpap.idr >> 17) & 0x3ff;
	uint8_t cls = (tmpap.idr >> 13) & 0xf;
	uint8_t type = tmpap.idr & 0xf;
	if (mfg != 0x23B) /* Ditch if not ARM */
 80005d2:	4291      	cmp	r1, r2
 80005d4:	d13c      	bne.n	8000650 <adiv5_new_ap+0xb6>
		return NULL;
	if ((cls != 8) || (type == 0)) /* Ditch if not Mem-AP */
 80005d6:	2c08      	cmp	r4, #8
 80005d8:	d13a      	bne.n	8000650 <adiv5_new_ap+0xb6>
 80005da:	220f      	movs	r2, #15
 80005dc:	4013      	ands	r3, r2
	tmpap.dp = dp;
	tmpap.apsel = apsel;
	tmpap.idr = adiv5_ap_read(&tmpap, ADIV5_AP_IDR);

	if(!tmpap.idr) /* IDR Invalid - Should we not continue here? */
		return NULL;
 80005de:	1e18      	subs	r0, r3, #0
	uint16_t mfg = (tmpap.idr >> 17) & 0x3ff;
	uint8_t cls = (tmpap.idr >> 13) & 0xf;
	uint8_t type = tmpap.idr & 0xf;
	if (mfg != 0x23B) /* Ditch if not ARM */
		return NULL;
	if ((cls != 8) || (type == 0)) /* Ditch if not Mem-AP */
 80005e0:	d036      	beq.n	8000650 <adiv5_new_ap+0xb6>
		return NULL;

	/* It's valid to so create a heap copy */
	ap = malloc(sizeof(*ap));
 80005e2:	201c      	movs	r0, #28
 80005e4:	f00c f954 	bl	800c890 <malloc>
	memcpy(ap, &tmpap, sizeof(*ap));
 80005e8:	1c03      	adds	r3, r0, #0
		return NULL;
	if ((cls != 8) || (type == 0)) /* Ditch if not Mem-AP */
		return NULL;

	/* It's valid to so create a heap copy */
	ap = malloc(sizeof(*ap));
 80005ea:	1c04      	adds	r4, r0, #0
	memcpy(ap, &tmpap, sizeof(*ap));
 80005ec:	cd07      	ldmia	r5!, {r0, r1, r2}
 80005ee:	c307      	stmia	r3!, {r0, r1, r2}
 80005f0:	cd07      	ldmia	r5!, {r0, r1, r2}
 80005f2:	c307      	stmia	r3!, {r0, r1, r2}
	adiv5_dp_ref(dp);

	ap->cfg = adiv5_ap_read(ap, ADIV5_AP_CFG);
 80005f4:	21fa      	movs	r1, #250	; 0xfa
	if ((cls != 8) || (type == 0)) /* Ditch if not Mem-AP */
		return NULL;

	/* It's valid to so create a heap copy */
	ap = malloc(sizeof(*ap));
	memcpy(ap, &tmpap, sizeof(*ap));
 80005f6:	682a      	ldr	r2, [r5, #0]
	adiv5_dp_ref(dp);

	ap->cfg = adiv5_ap_read(ap, ADIV5_AP_CFG);
 80005f8:	0049      	lsls	r1, r1, #1
	if ((cls != 8) || (type == 0)) /* Ditch if not Mem-AP */
		return NULL;

	/* It's valid to so create a heap copy */
	ap = malloc(sizeof(*ap));
	memcpy(ap, &tmpap, sizeof(*ap));
 80005fa:	601a      	str	r2, [r3, #0]

extern bool cortexa_probe(ADIv5_AP_t *apb, uint32_t debug_base);

void adiv5_dp_ref(ADIv5_DP_t *dp)
{
	dp->refcnt++;
 80005fc:	6833      	ldr	r3, [r6, #0]
	/* It's valid to so create a heap copy */
	ap = malloc(sizeof(*ap));
	memcpy(ap, &tmpap, sizeof(*ap));
	adiv5_dp_ref(dp);

	ap->cfg = adiv5_ap_read(ap, ADIV5_AP_CFG);
 80005fe:	1c20      	adds	r0, r4, #0

extern bool cortexa_probe(ADIv5_AP_t *apb, uint32_t debug_base);

void adiv5_dp_ref(ADIv5_DP_t *dp)
{
	dp->refcnt++;
 8000600:	3301      	adds	r3, #1
 8000602:	6033      	str	r3, [r6, #0]
	/* It's valid to so create a heap copy */
	ap = malloc(sizeof(*ap));
	memcpy(ap, &tmpap, sizeof(*ap));
	adiv5_dp_ref(dp);

	ap->cfg = adiv5_ap_read(ap, ADIV5_AP_CFG);
 8000604:	f7ff ffb8 	bl	8000578 <adiv5_ap_read>
	ap->base = adiv5_ap_read(ap, ADIV5_AP_BASE);
 8000608:	21fc      	movs	r1, #252	; 0xfc
	/* It's valid to so create a heap copy */
	ap = malloc(sizeof(*ap));
	memcpy(ap, &tmpap, sizeof(*ap));
	adiv5_dp_ref(dp);

	ap->cfg = adiv5_ap_read(ap, ADIV5_AP_CFG);
 800060a:	6120      	str	r0, [r4, #16]
	ap->base = adiv5_ap_read(ap, ADIV5_AP_BASE);
 800060c:	0049      	lsls	r1, r1, #1
 800060e:	1c20      	adds	r0, r4, #0
 8000610:	f7ff ffb2 	bl	8000578 <adiv5_ap_read>
	ap->csw = adiv5_ap_read(ap, ADIV5_AP_CSW) &
 8000614:	2180      	movs	r1, #128	; 0x80
	ap = malloc(sizeof(*ap));
	memcpy(ap, &tmpap, sizeof(*ap));
	adiv5_dp_ref(dp);

	ap->cfg = adiv5_ap_read(ap, ADIV5_AP_CFG);
	ap->base = adiv5_ap_read(ap, ADIV5_AP_BASE);
 8000616:	6160      	str	r0, [r4, #20]
	ap->csw = adiv5_ap_read(ap, ADIV5_AP_CSW) &
 8000618:	0049      	lsls	r1, r1, #1
 800061a:	1c20      	adds	r0, r4, #0
 800061c:	f7ff ffac 	bl	8000578 <adiv5_ap_read>
 8000620:	2337      	movs	r3, #55	; 0x37
 8000622:	1c02      	adds	r2, r0, #0
		~(ADIV5_AP_CSW_SIZE_MASK | ADIV5_AP_CSW_ADDRINC_MASK);

	if (ap->csw & ADIV5_AP_CSW_TRINPROG) {
 8000624:	2580      	movs	r5, #128	; 0x80
	memcpy(ap, &tmpap, sizeof(*ap));
	adiv5_dp_ref(dp);

	ap->cfg = adiv5_ap_read(ap, ADIV5_AP_CFG);
	ap->base = adiv5_ap_read(ap, ADIV5_AP_BASE);
	ap->csw = adiv5_ap_read(ap, ADIV5_AP_CSW) &
 8000626:	439a      	bics	r2, r3
 8000628:	61a2      	str	r2, [r4, #24]
		~(ADIV5_AP_CSW_SIZE_MASK | ADIV5_AP_CSW_ADDRINC_MASK);

	if (ap->csw & ADIV5_AP_CSW_TRINPROG) {
 800062a:	4228      	tst	r0, r5
 800062c:	d005      	beq.n	800063a <adiv5_new_ap+0xa0>
		DEBUG("AP transaction in progress.  Target may not be usable.\n");
 800062e:	480a      	ldr	r0, [pc, #40]	; (8000658 <adiv5_new_ap+0xbe>)
 8000630:	f00c faa4 	bl	800cb7c <puts>
		ap->csw &= ~ADIV5_AP_CSW_TRINPROG;
 8000634:	69a3      	ldr	r3, [r4, #24]
 8000636:	43ab      	bics	r3, r5
 8000638:	61a3      	str	r3, [r4, #24]
	}

	DEBUG(" AP %3d: IDR=%08"PRIx32" CFG=%08"PRIx32" BASE=%08"PRIx32" CSW=%08"PRIx32"\n",
 800063a:	6963      	ldr	r3, [r4, #20]
 800063c:	4807      	ldr	r0, [pc, #28]	; (800065c <adiv5_new_ap+0xc2>)
 800063e:	9300      	str	r3, [sp, #0]
 8000640:	69a3      	ldr	r3, [r4, #24]
 8000642:	1c39      	adds	r1, r7, #0
 8000644:	9301      	str	r3, [sp, #4]
 8000646:	68e2      	ldr	r2, [r4, #12]
 8000648:	6923      	ldr	r3, [r4, #16]
 800064a:	f00c fa07 	bl	800ca5c <iprintf>
	      apsel, ap->idr, ap->cfg, ap->base, ap->csw);

	return ap;
 800064e:	1c20      	adds	r0, r4, #0
}
 8000650:	b00b      	add	sp, #44	; 0x2c
 8000652:	bdf0      	pop	{r4, r5, r6, r7, pc}
 8000654:	0000023b 	.word	0x0000023b
 8000658:	0800f4bf 	.word	0x0800f4bf
 800065c:	0800f4f6 	.word	0x0800f4f6

08000660 <adiv5_dp_init>:


void adiv5_dp_init(ADIv5_DP_t *dp)
{
	volatile uint32_t ctrlstat = 0;
 8000660:	2200      	movs	r2, #0
	return ap;
}


void adiv5_dp_init(ADIv5_DP_t *dp)
{
 8000662:	b530      	push	{r4, r5, lr}
 8000664:	b0a1      	sub	sp, #132	; 0x84
	volatile uint32_t ctrlstat = 0;
 8000666:	9204      	str	r2, [sp, #16]

	adiv5_dp_ref(dp);

	volatile struct exception e;
	TRY_CATCH (e, EXCEPTION_TIMEOUT) {
 8000668:	9205      	str	r2, [sp, #20]
 800066a:	3202      	adds	r2, #2

extern bool cortexa_probe(ADIv5_AP_t *apb, uint32_t debug_base);

void adiv5_dp_ref(ADIv5_DP_t *dp)
{
	dp->refcnt++;
 800066c:	6803      	ldr	r3, [r0, #0]
	volatile uint32_t ctrlstat = 0;

	adiv5_dp_ref(dp);

	volatile struct exception e;
	TRY_CATCH (e, EXCEPTION_TIMEOUT) {
 800066e:	9207      	str	r2, [sp, #28]
 8000670:	4a2c      	ldr	r2, [pc, #176]	; (8000724 <adiv5_dp_init+0xc4>)

extern bool cortexa_probe(ADIv5_AP_t *apb, uint32_t debug_base);

void adiv5_dp_ref(ADIv5_DP_t *dp)
{
	dp->refcnt++;
 8000672:	9302      	str	r3, [sp, #8]
	volatile uint32_t ctrlstat = 0;

	adiv5_dp_ref(dp);

	volatile struct exception e;
	TRY_CATCH (e, EXCEPTION_TIMEOUT) {
 8000674:	6811      	ldr	r1, [r2, #0]

extern bool cortexa_probe(ADIv5_AP_t *apb, uint32_t debug_base);

void adiv5_dp_ref(ADIv5_DP_t *dp)
{
	dp->refcnt++;
 8000676:	3301      	adds	r3, #1
 8000678:	6003      	str	r3, [r0, #0]
	return ap;
}


void adiv5_dp_init(ADIv5_DP_t *dp)
{
 800067a:	9001      	str	r0, [sp, #4]
	volatile uint32_t ctrlstat = 0;

	adiv5_dp_ref(dp);

	volatile struct exception e;
	TRY_CATCH (e, EXCEPTION_TIMEOUT) {
 800067c:	ab05      	add	r3, sp, #20
 800067e:	a808      	add	r0, sp, #32
 8000680:	911f      	str	r1, [sp, #124]	; 0x7c
 8000682:	6013      	str	r3, [r2, #0]
 8000684:	f00c fa96 	bl	800cbb4 <setjmp>
 8000688:	2800      	cmp	r0, #0
 800068a:	d011      	beq.n	80006b0 <adiv5_dp_init+0x50>
		ctrlstat = adiv5_dp_read(dp, ADIV5_DP_CTRLSTAT);
	}
	if (e.type) {
 800068c:	9b05      	ldr	r3, [sp, #20]
 800068e:	2b00      	cmp	r3, #0
 8000690:	d01b      	beq.n	80006ca <adiv5_dp_init+0x6a>
		DEBUG("DP not responding!  Trying abort sequence...\n");
 8000692:	4825      	ldr	r0, [pc, #148]	; (8000728 <adiv5_dp_init+0xc8>)
 8000694:	f00c fa72 	bl	800cb7c <puts>

static inline void adiv5_dp_abort(struct ADIv5_DP_s *dp, uint32_t abort)
{
	return dp->abort(dp, abort);
 8000698:	9b01      	ldr	r3, [sp, #4]
 800069a:	9801      	ldr	r0, [sp, #4]
 800069c:	695b      	ldr	r3, [r3, #20]
 800069e:	2101      	movs	r1, #1
 80006a0:	9303      	str	r3, [sp, #12]
 80006a2:	4798      	blx	r3
		adiv5_dp_abort(dp, ADIV5_DP_ABORT_DAPABORT);
		ctrlstat = adiv5_dp_read(dp, ADIV5_DP_CTRLSTAT);
 80006a4:	9801      	ldr	r0, [sp, #4]
 80006a6:	2104      	movs	r1, #4
 80006a8:	f7ff fd0a 	bl	80000c0 <adiv5_dp_read>
 80006ac:	9004      	str	r0, [sp, #16]
 80006ae:	e00c      	b.n	80006ca <adiv5_dp_init+0x6a>
	volatile uint32_t ctrlstat = 0;

	adiv5_dp_ref(dp);

	volatile struct exception e;
	TRY_CATCH (e, EXCEPTION_TIMEOUT) {
 80006b0:	4d1c      	ldr	r5, [pc, #112]	; (8000724 <adiv5_dp_init+0xc4>)
 80006b2:	ab05      	add	r3, sp, #20
 80006b4:	682c      	ldr	r4, [r5, #0]
 80006b6:	429c      	cmp	r4, r3
 80006b8:	d1e8      	bne.n	800068c <adiv5_dp_init+0x2c>
		ctrlstat = adiv5_dp_read(dp, ADIV5_DP_CTRLSTAT);
 80006ba:	9801      	ldr	r0, [sp, #4]
 80006bc:	2104      	movs	r1, #4
 80006be:	f7ff fcff 	bl	80000c0 <adiv5_dp_read>
 80006c2:	9004      	str	r0, [sp, #16]
	volatile uint32_t ctrlstat = 0;

	adiv5_dp_ref(dp);

	volatile struct exception e;
	TRY_CATCH (e, EXCEPTION_TIMEOUT) {
 80006c4:	6ea3      	ldr	r3, [r4, #104]	; 0x68
 80006c6:	602b      	str	r3, [r5, #0]
 80006c8:	e7f2      	b.n	80006b0 <adiv5_dp_init+0x50>
		ctrlstat = adiv5_dp_read(dp, ADIV5_DP_CTRLSTAT);
	}

	/* Write request for system and debug power up */
	adiv5_dp_write(dp, ADIV5_DP_CTRLSTAT,
			ctrlstat |= ADIV5_DP_CTRLSTAT_CSYSPWRUPREQ |
 80006ca:	22a0      	movs	r2, #160	; 0xa0
 80006cc:	9b04      	ldr	r3, [sp, #16]
 80006ce:	05d2      	lsls	r2, r2, #23
 80006d0:	431a      	orrs	r2, r3
		adiv5_dp_abort(dp, ADIV5_DP_ABORT_DAPABORT);
		ctrlstat = adiv5_dp_read(dp, ADIV5_DP_CTRLSTAT);
	}

	/* Write request for system and debug power up */
	adiv5_dp_write(dp, ADIV5_DP_CTRLSTAT,
 80006d2:	9801      	ldr	r0, [sp, #4]
 80006d4:	2104      	movs	r1, #4
 80006d6:	9204      	str	r2, [sp, #16]
 80006d8:	f7ff fd32 	bl	8000140 <adiv5_dp_write>
			ctrlstat |= ADIV5_DP_CTRLSTAT_CSYSPWRUPREQ |
				ADIV5_DP_CTRLSTAT_CDBGPWRUPREQ);
	/* Wait for acknowledge */
	while(((ctrlstat = adiv5_dp_read(dp, ADIV5_DP_CTRLSTAT)) &
 80006dc:	9801      	ldr	r0, [sp, #4]
 80006de:	2104      	movs	r1, #4
 80006e0:	f7ff fcee 	bl	80000c0 <adiv5_dp_read>
 80006e4:	23a0      	movs	r3, #160	; 0xa0
 80006e6:	061b      	lsls	r3, r3, #24
 80006e8:	9004      	str	r0, [sp, #16]
 80006ea:	4018      	ands	r0, r3
 80006ec:	4298      	cmp	r0, r3
 80006ee:	d1f5      	bne.n	80006dc <adiv5_dp_init+0x7c>
 80006f0:	2400      	movs	r4, #0
				ADIV5_DP_CTRLSTAT_CDBGRSTACK);
	}

	/* Probe for APs on this DP */
	for(int i = 0; i < 256; i++) {
		ADIv5_AP_t *ap = adiv5_new_ap(dp, i);
 80006f2:	b2e1      	uxtb	r1, r4
 80006f4:	9801      	ldr	r0, [sp, #4]
 80006f6:	f7ff ff50 	bl	800059a <adiv5_new_ap>
		if (ap == NULL)
 80006fa:	2800      	cmp	r0, #0
 80006fc:	d109      	bne.n	8000712 <adiv5_dp_init+0xb2>
		while(adiv5_dp_read(dp, ADIV5_DP_CTRLSTAT) &
				ADIV5_DP_CTRLSTAT_CDBGRSTACK);
	}

	/* Probe for APs on this DP */
	for(int i = 0; i < 256; i++) {
 80006fe:	2380      	movs	r3, #128	; 0x80
 8000700:	3401      	adds	r4, #1
 8000702:	005b      	lsls	r3, r3, #1
 8000704:	429c      	cmp	r4, r3
 8000706:	d1f4      	bne.n	80006f2 <adiv5_dp_init+0x92>
		 */

		/* The rest sould only be added after checking ROM table */
		adiv5_component_probe(ap, ap->base);
	}
	adiv5_dp_unref(dp);
 8000708:	9801      	ldr	r0, [sp, #4]
 800070a:	f7ff fd01 	bl	8000110 <adiv5_dp_unref>
}
 800070e:	b021      	add	sp, #132	; 0x84
 8000710:	bd30      	pop	{r4, r5, pc}
	for(int i = 0; i < 256; i++) {
		ADIv5_AP_t *ap = adiv5_new_ap(dp, i);
		if (ap == NULL)
			continue;

		if (ap->base == 0xffffffff) {
 8000712:	6941      	ldr	r1, [r0, #20]
 8000714:	1c4b      	adds	r3, r1, #1
 8000716:	d102      	bne.n	800071e <adiv5_dp_init+0xbe>
			/* No debug entries... useless AP */
			adiv5_ap_unref(ap);
 8000718:	f7ff fd04 	bl	8000124 <adiv5_ap_unref>
 800071c:	e7ef      	b.n	80006fe <adiv5_dp_init+0x9e>
		/* Should probe further here to make sure it's a valid target.
		 * AP should be unref'd if not valid.
		 */

		/* The rest sould only be added after checking ROM table */
		adiv5_component_probe(ap, ap->base);
 800071e:	f7ff fdef 	bl	8000300 <adiv5_component_probe>
 8000722:	e7ec      	b.n	80006fe <adiv5_dp_init+0x9e>
 8000724:	20001dc4 	.word	0x20001dc4
 8000728:	0800f529 	.word	0x0800f529

0800072c <adiv5_jtagdp_abort>:

	return (uint32_t)(response >> 3);
}

static void adiv5_jtagdp_abort(ADIv5_DP_t *dp, uint32_t abort)
{
 800072c:	b513      	push	{r0, r1, r4, lr}
 800072e:	1c04      	adds	r4, r0, #0
	uint64_t request = (uint64_t)abort << 3;
 8000730:	0f4b      	lsrs	r3, r1, #29
 8000732:	00c9      	lsls	r1, r1, #3
 8000734:	9100      	str	r1, [sp, #0]
	jtag_dev_write_ir(dp->dev, IR_ABORT);
 8000736:	6980      	ldr	r0, [r0, #24]
 8000738:	2108      	movs	r1, #8
	return (uint32_t)(response >> 3);
}

static void adiv5_jtagdp_abort(ADIv5_DP_t *dp, uint32_t abort)
{
	uint64_t request = (uint64_t)abort << 3;
 800073a:	9301      	str	r3, [sp, #4]
	jtag_dev_write_ir(dp->dev, IR_ABORT);
 800073c:	f003 fb58 	bl	8003df0 <jtag_dev_write_ir>
	jtag_dev_shift_dr(dp->dev, NULL, (const uint8_t*)&request, 35);
 8000740:	69a0      	ldr	r0, [r4, #24]
 8000742:	2100      	movs	r1, #0
 8000744:	466a      	mov	r2, sp
 8000746:	2323      	movs	r3, #35	; 0x23
 8000748:	f003 fb8a 	bl	8003e60 <jtag_dev_shift_dr>
}
 800074c:	bd13      	pop	{r0, r1, r4, pc}

0800074e <adiv5_jtagdp_low_access>:
				ADIV5_DP_CTRLSTAT, 0xF0000032) & 0x32;
}

static uint32_t adiv5_jtagdp_low_access(ADIv5_DP_t *dp, uint8_t RnW,
					uint16_t addr, uint32_t value)
{
 800074e:	b530      	push	{r4, r5, lr}
 8000750:	1c04      	adds	r4, r0, #0
	addr &= 0xff;
	uint64_t request, response;
	uint8_t ack;
	platform_timeout timeout;

	request = ((uint64_t)value << 3) | ((addr >> 1) & 0x06) | (RnW?1:0);
 8000752:	1e48      	subs	r0, r1, #1
 8000754:	4181      	sbcs	r1, r0
 8000756:	2006      	movs	r0, #6
 8000758:	0f5d      	lsrs	r5, r3, #29
 800075a:	00db      	lsls	r3, r3, #3
 800075c:	4319      	orrs	r1, r3
 800075e:	0853      	lsrs	r3, r2, #1
 8000760:	4018      	ands	r0, r3
				ADIV5_DP_CTRLSTAT, 0xF0000032) & 0x32;
}

static uint32_t adiv5_jtagdp_low_access(ADIv5_DP_t *dp, uint8_t RnW,
					uint16_t addr, uint32_t value)
{
 8000762:	b087      	sub	sp, #28
	addr &= 0xff;
	uint64_t request, response;
	uint8_t ack;
	platform_timeout timeout;

	request = ((uint64_t)value << 3) | ((addr >> 1) & 0x06) | (RnW?1:0);
 8000764:	4301      	orrs	r1, r0
 8000766:	9102      	str	r1, [sp, #8]

	jtag_dev_write_ir(dp->dev, APnDP ? IR_APACC : IR_DPACC);
 8000768:	05d1      	lsls	r1, r2, #23
 800076a:	0fc9      	lsrs	r1, r1, #31
 800076c:	310a      	adds	r1, #10
 800076e:	69a0      	ldr	r0, [r4, #24]
	addr &= 0xff;
	uint64_t request, response;
	uint8_t ack;
	platform_timeout timeout;

	request = ((uint64_t)value << 3) | ((addr >> 1) & 0x06) | (RnW?1:0);
 8000770:	9503      	str	r5, [sp, #12]

	jtag_dev_write_ir(dp->dev, APnDP ? IR_APACC : IR_DPACC);
 8000772:	f003 fb3d 	bl	8003df0 <jtag_dev_write_ir>

	platform_timeout_set(&timeout, 2000);
 8000776:	21fa      	movs	r1, #250	; 0xfa
 8000778:	a801      	add	r0, sp, #4
 800077a:	00c9      	lsls	r1, r1, #3
 800077c:	f00a fe88 	bl	800b490 <platform_timeout_set>
	do {
		jtag_dev_shift_dr(dp->dev, (uint8_t*)&response, (uint8_t*)&request, 35);
		ack = response & 0x07;
 8000780:	2507      	movs	r5, #7

	jtag_dev_write_ir(dp->dev, APnDP ? IR_APACC : IR_DPACC);

	platform_timeout_set(&timeout, 2000);
	do {
		jtag_dev_shift_dr(dp->dev, (uint8_t*)&response, (uint8_t*)&request, 35);
 8000782:	69a0      	ldr	r0, [r4, #24]
 8000784:	2323      	movs	r3, #35	; 0x23
 8000786:	a904      	add	r1, sp, #16
 8000788:	aa02      	add	r2, sp, #8
 800078a:	f003 fb69 	bl	8003e60 <jtag_dev_shift_dr>
		ack = response & 0x07;
 800078e:	9b04      	ldr	r3, [sp, #16]
	} while(!platform_timeout_is_expired(&timeout) && (ack == JTAGDP_ACK_WAIT));
 8000790:	a801      	add	r0, sp, #4
	jtag_dev_write_ir(dp->dev, APnDP ? IR_APACC : IR_DPACC);

	platform_timeout_set(&timeout, 2000);
	do {
		jtag_dev_shift_dr(dp->dev, (uint8_t*)&response, (uint8_t*)&request, 35);
		ack = response & 0x07;
 8000792:	401d      	ands	r5, r3
	} while(!platform_timeout_is_expired(&timeout) && (ack == JTAGDP_ACK_WAIT));
 8000794:	f00a fe84 	bl	800b4a0 <platform_timeout_is_expired>
 8000798:	2800      	cmp	r0, #0
 800079a:	d102      	bne.n	80007a2 <adiv5_jtagdp_low_access+0x54>
 800079c:	2d01      	cmp	r5, #1
 800079e:	d0ef      	beq.n	8000780 <adiv5_jtagdp_low_access+0x32>
 80007a0:	e006      	b.n	80007b0 <adiv5_jtagdp_low_access+0x62>

	if (ack == JTAGDP_ACK_WAIT)
 80007a2:	2d01      	cmp	r5, #1
 80007a4:	d104      	bne.n	80007b0 <adiv5_jtagdp_low_access+0x62>
		raise_exception(EXCEPTION_TIMEOUT, "JTAG-DP ACK timeout");
 80007a6:	2002      	movs	r0, #2
 80007a8:	4908      	ldr	r1, [pc, #32]	; (80007cc <adiv5_jtagdp_low_access+0x7e>)
 80007aa:	f002 f895 	bl	80028d8 <raise_exception>
 80007ae:	e001      	b.n	80007b4 <adiv5_jtagdp_low_access+0x66>

	if((ack != JTAGDP_ACK_OK))
 80007b0:	2d02      	cmp	r5, #2
 80007b2:	d003      	beq.n	80007bc <adiv5_jtagdp_low_access+0x6e>
		raise_exception(EXCEPTION_ERROR, "JTAG-DP invalid ACK");
 80007b4:	2001      	movs	r0, #1
 80007b6:	4906      	ldr	r1, [pc, #24]	; (80007d0 <adiv5_jtagdp_low_access+0x82>)
 80007b8:	f002 f88e 	bl	80028d8 <raise_exception>

	return (uint32_t)(response >> 3);
 80007bc:	9b05      	ldr	r3, [sp, #20]
 80007be:	9a04      	ldr	r2, [sp, #16]
 80007c0:	075b      	lsls	r3, r3, #29
 80007c2:	08d0      	lsrs	r0, r2, #3
 80007c4:	4318      	orrs	r0, r3
}
 80007c6:	b007      	add	sp, #28
 80007c8:	bd30      	pop	{r4, r5, pc}
 80007ca:	46c0      	nop			; (mov r8, r8)
 80007cc:	0800fab9 	.word	0x0800fab9
 80007d0:	0800facd 	.word	0x0800facd

080007d4 <adiv5_jtagdp_error>:
	return adiv5_jtagdp_low_access(dp, ADIV5_LOW_READ,
					ADIV5_DP_RDBUFF, 0);
}

static uint32_t adiv5_jtagdp_error(ADIv5_DP_t *dp)
{
 80007d4:	b510      	push	{r4, lr}
 80007d6:	1c04      	adds	r4, r0, #0
	adiv5_jtagdp_low_access(dp, ADIV5_LOW_READ, ADIV5_DP_CTRLSTAT, 0);
 80007d8:	2101      	movs	r1, #1
 80007da:	2204      	movs	r2, #4
 80007dc:	2300      	movs	r3, #0
 80007de:	f7ff ffb6 	bl	800074e <adiv5_jtagdp_low_access>
	return adiv5_jtagdp_low_access(dp, ADIV5_LOW_WRITE,
 80007e2:	1c20      	adds	r0, r4, #0
 80007e4:	2100      	movs	r1, #0
 80007e6:	2204      	movs	r2, #4
 80007e8:	4b02      	ldr	r3, [pc, #8]	; (80007f4 <adiv5_jtagdp_error+0x20>)
 80007ea:	f7ff ffb0 	bl	800074e <adiv5_jtagdp_low_access>
 80007ee:	2332      	movs	r3, #50	; 0x32
 80007f0:	4018      	ands	r0, r3
				ADIV5_DP_CTRLSTAT, 0xF0000032) & 0x32;
}
 80007f2:	bd10      	pop	{r4, pc}
 80007f4:	f0000032 	.word	0xf0000032

080007f8 <adiv5_jtagdp_read>:

	adiv5_dp_init(dp);
}

static uint32_t adiv5_jtagdp_read(ADIv5_DP_t *dp, uint16_t addr)
{
 80007f8:	b510      	push	{r4, lr}
 80007fa:	1c04      	adds	r4, r0, #0
 80007fc:	1c0a      	adds	r2, r1, #0
	adiv5_jtagdp_low_access(dp, ADIV5_LOW_READ, addr, 0);
 80007fe:	2300      	movs	r3, #0
 8000800:	2101      	movs	r1, #1
 8000802:	f7ff ffa4 	bl	800074e <adiv5_jtagdp_low_access>
	return adiv5_jtagdp_low_access(dp, ADIV5_LOW_READ,
 8000806:	1c20      	adds	r0, r4, #0
 8000808:	2101      	movs	r1, #1
 800080a:	220c      	movs	r2, #12
 800080c:	2300      	movs	r3, #0
 800080e:	f7ff ff9e 	bl	800074e <adiv5_jtagdp_low_access>
					ADIV5_DP_RDBUFF, 0);
}
 8000812:	bd10      	pop	{r4, pc}

08000814 <adiv5_jtag_dp_handler>:
					uint16_t addr, uint32_t value);

static void adiv5_jtagdp_abort(ADIv5_DP_t *dp, uint32_t abort);

void adiv5_jtag_dp_handler(jtag_dev_t *dev)
{
 8000814:	b510      	push	{r4, lr}
 8000816:	1c04      	adds	r4, r0, #0
	ADIv5_DP_t *dp = (void*)calloc(1, sizeof(*dp));
 8000818:	211c      	movs	r1, #28
 800081a:	2001      	movs	r0, #1
 800081c:	f00c f82c 	bl	800c878 <calloc>

	dp->dev = dev;
	dp->idcode = dev->idcode;
 8000820:	68a3      	ldr	r3, [r4, #8]

void adiv5_jtag_dp_handler(jtag_dev_t *dev)
{
	ADIv5_DP_t *dp = (void*)calloc(1, sizeof(*dp));

	dp->dev = dev;
 8000822:	6184      	str	r4, [r0, #24]
	dp->idcode = dev->idcode;
 8000824:	6043      	str	r3, [r0, #4]

	dp->dp_read = adiv5_jtagdp_read;
 8000826:	4b05      	ldr	r3, [pc, #20]	; (800083c <adiv5_jtag_dp_handler+0x28>)
 8000828:	6083      	str	r3, [r0, #8]
	dp->error = adiv5_jtagdp_error;
 800082a:	4b05      	ldr	r3, [pc, #20]	; (8000840 <adiv5_jtag_dp_handler+0x2c>)
 800082c:	60c3      	str	r3, [r0, #12]
	dp->low_access = adiv5_jtagdp_low_access;
 800082e:	4b05      	ldr	r3, [pc, #20]	; (8000844 <adiv5_jtag_dp_handler+0x30>)
 8000830:	6103      	str	r3, [r0, #16]
	dp->abort = adiv5_jtagdp_abort;
 8000832:	4b05      	ldr	r3, [pc, #20]	; (8000848 <adiv5_jtag_dp_handler+0x34>)
 8000834:	6143      	str	r3, [r0, #20]

	adiv5_dp_init(dp);
 8000836:	f7ff ff13 	bl	8000660 <adiv5_dp_init>
}
 800083a:	bd10      	pop	{r4, pc}
 800083c:	080007f9 	.word	0x080007f9
 8000840:	080007d5 	.word	0x080007d5
 8000844:	0800074f 	.word	0x0800074f
 8000848:	0800072d 	.word	0x0800072d

0800084c <adiv5_swdp_abort>:

	return response;
}

static void adiv5_swdp_abort(ADIv5_DP_t *dp, uint32_t abort)
{
 800084c:	b508      	push	{r3, lr}
 800084e:	1c0a      	adds	r2, r1, #0
	adiv5_dp_write(dp, ADIV5_DP_ABORT, abort);
 8000850:	2100      	movs	r1, #0
 8000852:	f7ff fc75 	bl	8000140 <adiv5_dp_write>
}
 8000856:	bd08      	pop	{r3, pc}

08000858 <adiv5_swdp_low_access>:
	return err;
}

static uint32_t adiv5_swdp_low_access(ADIv5_DP_t *dp, uint8_t RnW,
				      uint16_t addr, uint32_t value)
{
 8000858:	b5f0      	push	{r4, r5, r6, r7, lr}
 800085a:	1c04      	adds	r4, r0, #0
	bool APnDP = addr & ADIV5_APnDP;
	addr &= 0xff;
	uint8_t request = 0x81;
	uint32_t response = 0;
 800085c:	2000      	movs	r0, #0
	return err;
}

static uint32_t adiv5_swdp_low_access(ADIv5_DP_t *dp, uint8_t RnW,
				      uint16_t addr, uint32_t value)
{
 800085e:	b085      	sub	sp, #20
	bool APnDP = addr & ADIV5_APnDP;
	addr &= 0xff;
	uint8_t request = 0x81;
	uint32_t response = 0;
 8000860:	9002      	str	r0, [sp, #8]
	uint8_t ack;
	platform_timeout timeout;

	if(APnDP && dp->fault) return 0;
 8000862:	05d5      	lsls	r5, r2, #23
 8000864:	d504      	bpl.n	8000870 <adiv5_swdp_low_access+0x18>
 8000866:	7e25      	ldrb	r5, [r4, #24]
 8000868:	4285      	cmp	r5, r0
 800086a:	d14c      	bne.n	8000906 <adiv5_swdp_low_access+0xae>

	if(APnDP) request ^= 0x22;
 800086c:	25a3      	movs	r5, #163	; 0xa3
 800086e:	e000      	b.n	8000872 <adiv5_swdp_low_access+0x1a>
static uint32_t adiv5_swdp_low_access(ADIv5_DP_t *dp, uint8_t RnW,
				      uint16_t addr, uint32_t value)
{
	bool APnDP = addr & ADIV5_APnDP;
	addr &= 0xff;
	uint8_t request = 0x81;
 8000870:	2581      	movs	r5, #129	; 0x81
	platform_timeout timeout;

	if(APnDP && dp->fault) return 0;

	if(APnDP) request ^= 0x22;
	if(RnW)   request ^= 0x24;
 8000872:	2900      	cmp	r1, #0
 8000874:	d001      	beq.n	800087a <adiv5_swdp_low_access+0x22>
 8000876:	2024      	movs	r0, #36	; 0x24
 8000878:	4045      	eors	r5, r0

	addr &= 0xC;
 800087a:	200c      	movs	r0, #12
 800087c:	4002      	ands	r2, r0
	request |= (addr << 1) & 0x18;
 800087e:	0050      	lsls	r0, r2, #1
 8000880:	4305      	orrs	r5, r0
	if((addr == 4) || (addr == 8))
 8000882:	2004      	movs	r0, #4
 8000884:	3a04      	subs	r2, #4
 8000886:	4382      	bics	r2, r0
 8000888:	b292      	uxth	r2, r2
 800088a:	2a00      	cmp	r2, #0
 800088c:	d102      	bne.n	8000894 <adiv5_swdp_low_access+0x3c>
		request ^= 0x20;
 800088e:	3220      	adds	r2, #32
 8000890:	4055      	eors	r5, r2
 8000892:	b2ed      	uxtb	r5, r5
 8000894:	1c0e      	adds	r6, r1, #0

	platform_timeout_set(&timeout, 2000);
 8000896:	21fa      	movs	r1, #250	; 0xfa
 8000898:	a803      	add	r0, sp, #12
 800089a:	00c9      	lsls	r1, r1, #3
 800089c:	1c1f      	adds	r7, r3, #0
 800089e:	9401      	str	r4, [sp, #4]
 80008a0:	f00a fdf6 	bl	800b490 <platform_timeout_set>
	do {
		swdptap_seq_out(request, 8);
 80008a4:	1c28      	adds	r0, r5, #0
 80008a6:	2108      	movs	r1, #8
 80008a8:	f004 fff6 	bl	8005898 <swdptap_seq_out>
		ack = swdptap_seq_in(3);
 80008ac:	2003      	movs	r0, #3
 80008ae:	f004 ff10 	bl	80056d2 <swdptap_seq_in>
 80008b2:	b2c4      	uxtb	r4, r0
	} while (ack == SWDP_ACK_WAIT && !platform_timeout_is_expired(&timeout));
 80008b4:	2c02      	cmp	r4, #2
 80008b6:	d10e      	bne.n	80008d6 <adiv5_swdp_low_access+0x7e>
 80008b8:	a803      	add	r0, sp, #12
 80008ba:	f00a fdf1 	bl	800b4a0 <platform_timeout_is_expired>
 80008be:	2800      	cmp	r0, #0
 80008c0:	d0f0      	beq.n	80008a4 <adiv5_swdp_low_access+0x4c>
		}
	}
	else
	{
		if (ack == SWDP_ACK_WAIT)
			raise_exception(EXCEPTION_TIMEOUT, "SWDP ACK timeout");
 80008c2:	1c20      	adds	r0, r4, #0
 80008c4:	4911      	ldr	r1, [pc, #68]	; (800090c <adiv5_swdp_low_access+0xb4>)
 80008c6:	f002 f807 	bl	80028d8 <raise_exception>
			dp->fault = 1;
			return 0;
		}

		if(ack != SWDP_ACK_OK)
			raise_exception(EXCEPTION_ERROR, "SWDP invalid ACK");
 80008ca:	2001      	movs	r0, #1
 80008cc:	4910      	ldr	r1, [pc, #64]	; (8000910 <adiv5_swdp_low_access+0xb8>)
 80008ce:	f002 f803 	bl	80028d8 <raise_exception>
	}

	/* REMOVE THIS */
	//swdptap_seq_out(0, 8);

	return response;
 80008d2:	9802      	ldr	r0, [sp, #8]
 80008d4:	e017      	b.n	8000906 <adiv5_swdp_low_access+0xae>
	do {
		swdptap_seq_out(request, 8);
		ack = swdptap_seq_in(3);
	} while (ack == SWDP_ACK_WAIT && !platform_timeout_is_expired(&timeout));

	if(ack == SWDP_ACK_OK)
 80008d6:	2c01      	cmp	r4, #1
 80008d8:	d10f      	bne.n	80008fa <adiv5_swdp_low_access+0xa2>
	{
		if(RnW) {
 80008da:	2e00      	cmp	r6, #0
 80008dc:	d008      	beq.n	80008f0 <adiv5_swdp_low_access+0x98>
			if(swdptap_seq_in_parity(&response, 32))  /* Give up on parity error */
 80008de:	a802      	add	r0, sp, #8
 80008e0:	2120      	movs	r1, #32
 80008e2:	f004 ff6b 	bl	80057bc <swdptap_seq_in_parity>
 80008e6:	2800      	cmp	r0, #0
 80008e8:	d0f3      	beq.n	80008d2 <adiv5_swdp_low_access+0x7a>
				raise_exception(EXCEPTION_ERROR, "SWDP Parity error");
 80008ea:	1c20      	adds	r0, r4, #0
 80008ec:	4909      	ldr	r1, [pc, #36]	; (8000914 <adiv5_swdp_low_access+0xbc>)
 80008ee:	e7ee      	b.n	80008ce <adiv5_swdp_low_access+0x76>
		} else {
			swdptap_seq_out_parity(value, 32);
 80008f0:	1c38      	adds	r0, r7, #0
 80008f2:	2120      	movs	r1, #32
 80008f4:	f005 f804 	bl	8005900 <swdptap_seq_out_parity>
 80008f8:	e7eb      	b.n	80008d2 <adiv5_swdp_low_access+0x7a>
	else
	{
		if (ack == SWDP_ACK_WAIT)
			raise_exception(EXCEPTION_TIMEOUT, "SWDP ACK timeout");

		if(ack == SWDP_ACK_FAULT) {
 80008fa:	2c04      	cmp	r4, #4
 80008fc:	d1e5      	bne.n	80008ca <adiv5_swdp_low_access+0x72>
			dp->fault = 1;
 80008fe:	2301      	movs	r3, #1
			return 0;
 8000900:	2000      	movs	r0, #0
	{
		if (ack == SWDP_ACK_WAIT)
			raise_exception(EXCEPTION_TIMEOUT, "SWDP ACK timeout");

		if(ack == SWDP_ACK_FAULT) {
			dp->fault = 1;
 8000902:	9a01      	ldr	r2, [sp, #4]
 8000904:	7613      	strb	r3, [r2, #24]

	/* REMOVE THIS */
	//swdptap_seq_out(0, 8);

	return response;
}
 8000906:	b005      	add	sp, #20
 8000908:	bdf0      	pop	{r4, r5, r6, r7, pc}
 800090a:	46c0      	nop			; (mov r8, r8)
 800090c:	0800fb04 	.word	0x0800fb04
 8000910:	0800faf3 	.word	0x0800faf3
 8000914:	0800fae1 	.word	0x0800fae1

08000918 <adiv5_swdp_read>:

	return target_list?1:0;
}

static uint32_t adiv5_swdp_read(ADIv5_DP_t *dp, uint16_t addr)
{
 8000918:	b538      	push	{r3, r4, r5, lr}
	if (addr & ADIV5_APnDP) {
 800091a:	2380      	movs	r3, #128	; 0x80
 800091c:	005b      	lsls	r3, r3, #1

	return target_list?1:0;
}

static uint32_t adiv5_swdp_read(ADIv5_DP_t *dp, uint16_t addr)
{
 800091e:	1c0a      	adds	r2, r1, #0
	if (addr & ADIV5_APnDP) {
 8000920:	400b      	ands	r3, r1

	return target_list?1:0;
}

static uint32_t adiv5_swdp_read(ADIv5_DP_t *dp, uint16_t addr)
{
 8000922:	1c04      	adds	r4, r0, #0
}

static inline uint32_t adiv5_dp_low_access(struct ADIv5_DP_s *dp, uint8_t RnW,
                                           uint16_t addr, uint32_t value)
{
	return dp->low_access(dp, RnW, addr, value);
 8000924:	2101      	movs	r1, #1
	if (addr & ADIV5_APnDP) {
 8000926:	2b00      	cmp	r3, #0
 8000928:	d009      	beq.n	800093e <adiv5_swdp_read+0x26>
 800092a:	6925      	ldr	r5, [r4, #16]
 800092c:	2300      	movs	r3, #0
 800092e:	47a8      	blx	r5
 8000930:	6925      	ldr	r5, [r4, #16]
 8000932:	1c20      	adds	r0, r4, #0
 8000934:	2101      	movs	r1, #1
 8000936:	220c      	movs	r2, #12
 8000938:	2300      	movs	r3, #0
 800093a:	47a8      	blx	r5
 800093c:	e001      	b.n	8000942 <adiv5_swdp_read+0x2a>
		adiv5_dp_low_access(dp, ADIV5_LOW_READ, addr, 0);
		return adiv5_dp_low_access(dp, ADIV5_LOW_READ,
		                           ADIV5_DP_RDBUFF, 0);
	} else {
		return adiv5_swdp_low_access(dp, ADIV5_LOW_READ, addr, 0);
 800093e:	f7ff ff8b 	bl	8000858 <adiv5_swdp_low_access>
	}
}
 8000942:	bd38      	pop	{r3, r4, r5, pc}

08000944 <adiv5_swdp_error>:

static uint32_t adiv5_swdp_error(ADIv5_DP_t *dp)
{
 8000944:	b538      	push	{r3, r4, r5, lr}
	uint32_t err, clr = 0;

	err = adiv5_swdp_read(dp, ADIV5_DP_CTRLSTAT) &
 8000946:	2104      	movs	r1, #4
		return adiv5_swdp_low_access(dp, ADIV5_LOW_READ, addr, 0);
	}
}

static uint32_t adiv5_swdp_error(ADIv5_DP_t *dp)
{
 8000948:	1c05      	adds	r5, r0, #0
	uint32_t err, clr = 0;

	err = adiv5_swdp_read(dp, ADIV5_DP_CTRLSTAT) &
 800094a:	f7ff ffe5 	bl	8000918 <adiv5_swdp_read>
		(ADIV5_DP_CTRLSTAT_STICKYORUN | ADIV5_DP_CTRLSTAT_STICKYCMP |
		ADIV5_DP_CTRLSTAT_STICKYERR | ADIV5_DP_CTRLSTAT_WDATAERR);

	if(err & ADIV5_DP_CTRLSTAT_STICKYORUN)
 800094e:	2302      	movs	r3, #2
 8000950:	1c02      	adds	r2, r0, #0
 8000952:	401a      	ands	r2, r3

static uint32_t adiv5_swdp_error(ADIv5_DP_t *dp)
{
	uint32_t err, clr = 0;

	err = adiv5_swdp_read(dp, ADIV5_DP_CTRLSTAT) &
 8000954:	24b2      	movs	r4, #178	; 0xb2
		(ADIV5_DP_CTRLSTAT_STICKYORUN | ADIV5_DP_CTRLSTAT_STICKYCMP |
		ADIV5_DP_CTRLSTAT_STICKYERR | ADIV5_DP_CTRLSTAT_WDATAERR);

	if(err & ADIV5_DP_CTRLSTAT_STICKYORUN)
		clr |= ADIV5_DP_ABORT_ORUNERRCLR;
 8000956:	1e51      	subs	r1, r2, #1
 8000958:	418a      	sbcs	r2, r1

static uint32_t adiv5_swdp_error(ADIv5_DP_t *dp)
{
	uint32_t err, clr = 0;

	err = adiv5_swdp_read(dp, ADIV5_DP_CTRLSTAT) &
 800095a:	4004      	ands	r4, r0
		(ADIV5_DP_CTRLSTAT_STICKYORUN | ADIV5_DP_CTRLSTAT_STICKYCMP |
		ADIV5_DP_CTRLSTAT_STICKYERR | ADIV5_DP_CTRLSTAT_WDATAERR);

	if(err & ADIV5_DP_CTRLSTAT_STICKYORUN)
		clr |= ADIV5_DP_ABORT_ORUNERRCLR;
 800095c:	0112      	lsls	r2, r2, #4
	if(err & ADIV5_DP_CTRLSTAT_STICKYCMP)
 800095e:	06c1      	lsls	r1, r0, #27
 8000960:	d500      	bpl.n	8000964 <adiv5_swdp_error+0x20>
		clr |= ADIV5_DP_ABORT_STKCMPCLR;
 8000962:	431a      	orrs	r2, r3
	if(err & ADIV5_DP_CTRLSTAT_STICKYERR)
 8000964:	0683      	lsls	r3, r0, #26
 8000966:	d501      	bpl.n	800096c <adiv5_swdp_error+0x28>
		clr |= ADIV5_DP_ABORT_STKERRCLR;
 8000968:	2304      	movs	r3, #4
 800096a:	431a      	orrs	r2, r3
	if(err & ADIV5_DP_CTRLSTAT_WDATAERR)
 800096c:	0603      	lsls	r3, r0, #24
 800096e:	d501      	bpl.n	8000974 <adiv5_swdp_error+0x30>
		clr |= ADIV5_DP_ABORT_WDERRCLR;
 8000970:	2308      	movs	r3, #8
 8000972:	431a      	orrs	r2, r3

	adiv5_dp_write(dp, ADIV5_DP_ABORT, clr);
 8000974:	1c28      	adds	r0, r5, #0
 8000976:	2100      	movs	r1, #0
 8000978:	f7ff fbe2 	bl	8000140 <adiv5_dp_write>
	dp->fault = 0;
 800097c:	2300      	movs	r3, #0

	return err;
}
 800097e:	1c20      	adds	r0, r4, #0
		clr |= ADIV5_DP_ABORT_STKERRCLR;
	if(err & ADIV5_DP_CTRLSTAT_WDATAERR)
		clr |= ADIV5_DP_ABORT_WDERRCLR;

	adiv5_dp_write(dp, ADIV5_DP_ABORT, clr);
	dp->fault = 0;
 8000980:	762b      	strb	r3, [r5, #24]

	return err;
}
 8000982:	bd38      	pop	{r3, r4, r5, pc}

08000984 <adiv5_swdp_scan>:
				      uint16_t addr, uint32_t value);

static void adiv5_swdp_abort(ADIv5_DP_t *dp, uint32_t abort);

int adiv5_swdp_scan(void)
{
 8000984:	b538      	push	{r3, r4, r5, lr}
	uint8_t ack;

	target_list_free();
 8000986:	f007 fb47 	bl	8008018 <target_list_free>
	ADIv5_DP_t *dp = (void*)calloc(1, sizeof(*dp));
 800098a:	211c      	movs	r1, #28
 800098c:	2001      	movs	r0, #1
 800098e:	f00b ff73 	bl	800c878 <calloc>
 8000992:	1c04      	adds	r4, r0, #0

	swdptap_init();
 8000994:	f007 fa9c 	bl	8007ed0 <swdptap_init>

	/* Switch from JTAG to SWD mode */
	swdptap_seq_out(0xFFFF, 16);
 8000998:	4822      	ldr	r0, [pc, #136]	; (8000a24 <adiv5_swdp_scan+0xa0>)
 800099a:	2110      	movs	r1, #16
 800099c:	f004 ff7c 	bl	8005898 <swdptap_seq_out>
 80009a0:	2532      	movs	r5, #50	; 0x32
	for(int i = 0; i < 50; i++)
		swdptap_bit_out(1);
 80009a2:	2001      	movs	r0, #1
 80009a4:	3d01      	subs	r5, #1
 80009a6:	f007 fac9 	bl	8007f3c <swdptap_bit_out>

	swdptap_init();

	/* Switch from JTAG to SWD mode */
	swdptap_seq_out(0xFFFF, 16);
	for(int i = 0; i < 50; i++)
 80009aa:	2d00      	cmp	r5, #0
 80009ac:	d1f9      	bne.n	80009a2 <adiv5_swdp_scan+0x1e>
		swdptap_bit_out(1);
	swdptap_seq_out(0xE79E, 16); /* 0b0111100111100111 */
 80009ae:	481e      	ldr	r0, [pc, #120]	; (8000a28 <adiv5_swdp_scan+0xa4>)
 80009b0:	2110      	movs	r1, #16
 80009b2:	f004 ff71 	bl	8005898 <swdptap_seq_out>
 80009b6:	3532      	adds	r5, #50	; 0x32
	for(int i = 0; i < 50; i++)
		swdptap_bit_out(1);
 80009b8:	2001      	movs	r0, #1
 80009ba:	3d01      	subs	r5, #1
 80009bc:	f007 fabe 	bl	8007f3c <swdptap_bit_out>
	/* Switch from JTAG to SWD mode */
	swdptap_seq_out(0xFFFF, 16);
	for(int i = 0; i < 50; i++)
		swdptap_bit_out(1);
	swdptap_seq_out(0xE79E, 16); /* 0b0111100111100111 */
	for(int i = 0; i < 50; i++)
 80009c0:	2d00      	cmp	r5, #0
 80009c2:	d1f9      	bne.n	80009b8 <adiv5_swdp_scan+0x34>
		swdptap_bit_out(1);
	swdptap_seq_out(0, 16);
 80009c4:	1c28      	adds	r0, r5, #0
 80009c6:	2110      	movs	r1, #16
 80009c8:	f004 ff66 	bl	8005898 <swdptap_seq_out>

	/* Read the SW-DP IDCODE register to syncronise */
	/* This could be done with adiv_swdp_low_access(), but this doesn't
	 * allow the ack to be checked here. */
	swdptap_seq_out(0xA5, 8);
 80009cc:	20a5      	movs	r0, #165	; 0xa5
 80009ce:	2108      	movs	r1, #8
 80009d0:	f004 ff62 	bl	8005898 <swdptap_seq_out>
	ack = swdptap_seq_in(3);
 80009d4:	2003      	movs	r0, #3
 80009d6:	f004 fe7c 	bl	80056d2 <swdptap_seq_in>
	if((ack != SWDP_ACK_OK) || swdptap_seq_in_parity(&dp->idcode, 32)) {
 80009da:	b2c0      	uxtb	r0, r0
 80009dc:	2801      	cmp	r0, #1
 80009de:	d008      	beq.n	80009f2 <adiv5_swdp_scan+0x6e>
		DEBUG("\n");
 80009e0:	200a      	movs	r0, #10
 80009e2:	f00c f855 	bl	800ca90 <putchar>
		free(dp);
 80009e6:	1c20      	adds	r0, r4, #0
 80009e8:	f00b ff5c 	bl	800c8a4 <free>
		return -1;
 80009ec:	2001      	movs	r0, #1
 80009ee:	4240      	negs	r0, r0
 80009f0:	e017      	b.n	8000a22 <adiv5_swdp_scan+0x9e>
	/* Read the SW-DP IDCODE register to syncronise */
	/* This could be done with adiv_swdp_low_access(), but this doesn't
	 * allow the ack to be checked here. */
	swdptap_seq_out(0xA5, 8);
	ack = swdptap_seq_in(3);
	if((ack != SWDP_ACK_OK) || swdptap_seq_in_parity(&dp->idcode, 32)) {
 80009f2:	1d20      	adds	r0, r4, #4
 80009f4:	2120      	movs	r1, #32
 80009f6:	f004 fee1 	bl	80057bc <swdptap_seq_in_parity>
 80009fa:	2800      	cmp	r0, #0
 80009fc:	d1f0      	bne.n	80009e0 <adiv5_swdp_scan+0x5c>
		DEBUG("\n");
		free(dp);
		return -1;
	}

	dp->dp_read = adiv5_swdp_read;
 80009fe:	4b0b      	ldr	r3, [pc, #44]	; (8000a2c <adiv5_swdp_scan+0xa8>)
	dp->error = adiv5_swdp_error;
	dp->low_access = adiv5_swdp_low_access;
	dp->abort = adiv5_swdp_abort;

	adiv5_swdp_error(dp);
 8000a00:	1c20      	adds	r0, r4, #0
		DEBUG("\n");
		free(dp);
		return -1;
	}

	dp->dp_read = adiv5_swdp_read;
 8000a02:	60a3      	str	r3, [r4, #8]
	dp->error = adiv5_swdp_error;
 8000a04:	4b0a      	ldr	r3, [pc, #40]	; (8000a30 <adiv5_swdp_scan+0xac>)
 8000a06:	60e3      	str	r3, [r4, #12]
	dp->low_access = adiv5_swdp_low_access;
 8000a08:	4b0a      	ldr	r3, [pc, #40]	; (8000a34 <adiv5_swdp_scan+0xb0>)
 8000a0a:	6123      	str	r3, [r4, #16]
	dp->abort = adiv5_swdp_abort;
 8000a0c:	4b0a      	ldr	r3, [pc, #40]	; (8000a38 <adiv5_swdp_scan+0xb4>)
 8000a0e:	6163      	str	r3, [r4, #20]

	adiv5_swdp_error(dp);
 8000a10:	f7ff ff98 	bl	8000944 <adiv5_swdp_error>
	adiv5_dp_init(dp);
 8000a14:	1c20      	adds	r0, r4, #0
 8000a16:	f7ff fe23 	bl	8000660 <adiv5_dp_init>

	return target_list?1:0;
 8000a1a:	4b08      	ldr	r3, [pc, #32]	; (8000a3c <adiv5_swdp_scan+0xb8>)
 8000a1c:	6818      	ldr	r0, [r3, #0]
 8000a1e:	1e43      	subs	r3, r0, #1
 8000a20:	4198      	sbcs	r0, r3
}
 8000a22:	bd38      	pop	{r3, r4, r5, pc}
 8000a24:	0000ffff 	.word	0x0000ffff
 8000a28:	0000e79e 	.word	0x0000e79e
 8000a2c:	08000919 	.word	0x08000919
 8000a30:	08000945 	.word	0x08000945
 8000a34:	08000859 	.word	0x08000859
 8000a38:	0800084d 	.word	0x0800084d
 8000a3c:	200011e0 	.word	0x200011e0

08000a40 <cmd_debug_bmp>:
}
#endif

#ifdef PLATFORM_HAS_DEBUG
static bool cmd_debug_bmp(target *t, int argc, const char **argv)
{
 8000a40:	b510      	push	{r4, lr}
 8000a42:	4c0a      	ldr	r4, [pc, #40]	; (8000a6c <cmd_debug_bmp+0x2c>)
	(void)t;
	if (argc > 1) {
 8000a44:	2901      	cmp	r1, #1
 8000a46:	dd06      	ble.n	8000a56 <cmd_debug_bmp+0x16>
		debug_bmp = !strcmp(argv[1], "enable");
 8000a48:	6850      	ldr	r0, [r2, #4]
 8000a4a:	4909      	ldr	r1, [pc, #36]	; (8000a70 <cmd_debug_bmp+0x30>)
 8000a4c:	f00c f9e2 	bl	800ce14 <strcmp>
 8000a50:	4243      	negs	r3, r0
 8000a52:	4143      	adcs	r3, r0
 8000a54:	7023      	strb	r3, [r4, #0]
	}
	gdb_outf("Debug mode is %s\n",
 8000a56:	7823      	ldrb	r3, [r4, #0]
 8000a58:	4906      	ldr	r1, [pc, #24]	; (8000a74 <cmd_debug_bmp+0x34>)
 8000a5a:	2b00      	cmp	r3, #0
 8000a5c:	d100      	bne.n	8000a60 <cmd_debug_bmp+0x20>
 8000a5e:	4906      	ldr	r1, [pc, #24]	; (8000a78 <cmd_debug_bmp+0x38>)
 8000a60:	4806      	ldr	r0, [pc, #24]	; (8000a7c <cmd_debug_bmp+0x3c>)
 8000a62:	f003 f80b 	bl	8003a7c <gdb_outf>
		 debug_bmp ? "enabled" : "disabled");
	return true;
}
 8000a66:	2001      	movs	r0, #1
 8000a68:	bd10      	pop	{r4, pc}
 8000a6a:	46c0      	nop			; (mov r8, r8)
 8000a6c:	20001d98 	.word	0x20001d98
 8000a70:	0800fba1 	.word	0x0800fba1
 8000a74:	0800fb90 	.word	0x0800fb90
 8000a78:	0800fb98 	.word	0x0800fb98
 8000a7c:	0800fba8 	.word	0x0800fba8

08000a80 <cmd_morse>:

	return true;
}

bool cmd_morse(void)
{
 8000a80:	b508      	push	{r3, lr}
	if(morse_msg)
 8000a82:	4b04      	ldr	r3, [pc, #16]	; (8000a94 <cmd_morse+0x14>)
 8000a84:	6819      	ldr	r1, [r3, #0]
 8000a86:	2900      	cmp	r1, #0
 8000a88:	d002      	beq.n	8000a90 <cmd_morse+0x10>
		gdb_outf("%s\n", morse_msg);
 8000a8a:	4803      	ldr	r0, [pc, #12]	; (8000a98 <cmd_morse+0x18>)
 8000a8c:	f002 fff6 	bl	8003a7c <gdb_outf>
	return true;
}
 8000a90:	2001      	movs	r0, #1
 8000a92:	bd08      	pop	{r3, pc}
 8000a94:	20002060 	.word	0x20002060
 8000a98:	0800fcd6 	.word	0x0800fcd6

08000a9c <cmd_hard_srst>:
		connect_assert_srst = !strcmp(argv[1], "enable");
	return true;
}

static bool cmd_hard_srst(void)
{
 8000a9c:	b508      	push	{r3, lr}
	target_list_free();
 8000a9e:	f007 fabb 	bl	8008018 <target_list_free>
	platform_srst_set_val(true);
 8000aa2:	2001      	movs	r0, #1
 8000aa4:	f004 fdf6 	bl	8005694 <platform_srst_set_val>
	platform_srst_set_val(false);
 8000aa8:	2000      	movs	r0, #0
 8000aaa:	f004 fdf3 	bl	8005694 <platform_srst_set_val>
	return true;
}
 8000aae:	2001      	movs	r0, #1
 8000ab0:	bd08      	pop	{r3, pc}

08000ab2 <cmd_version>:

	return target_command(t, argc, argv);
}

bool cmd_version(void)
{
 8000ab2:	b508      	push	{r3, lr}
	gdb_outf("Black Magic Probe (Firmware " FIRMWARE_VERSION ") (Hardware Version %d)\n", platform_hwversion());
 8000ab4:	2100      	movs	r1, #0
 8000ab6:	4805      	ldr	r0, [pc, #20]	; (8000acc <cmd_version+0x1a>)
 8000ab8:	f002 ffe0 	bl	8003a7c <gdb_outf>
	gdb_out("Copyright (C) 2015  Black Sphere Technologies Ltd.\n");
 8000abc:	4804      	ldr	r0, [pc, #16]	; (8000ad0 <cmd_version+0x1e>)
 8000abe:	f002 ffa4 	bl	8003a0a <gdb_out>
	gdb_out("License GPLv3+: GNU GPL version 3 or later "
 8000ac2:	4804      	ldr	r0, [pc, #16]	; (8000ad4 <cmd_version+0x22>)
 8000ac4:	f002 ffa1 	bl	8003a0a <gdb_out>
		"<http://gnu.org/licenses/gpl.html>\n\n");

	return true;
}
 8000ac8:	2001      	movs	r0, #1
 8000aca:	bd08      	pop	{r3, pc}
 8000acc:	0800fbba 	.word	0x0800fbba
 8000ad0:	0800fc0a 	.word	0x0800fc0a
 8000ad4:	0800fc3e 	.word	0x0800fc3e

08000ad8 <cmd_targets>:
	(void)context;
	gdb_outf("%2d   %c  %s\n", i, target_attached(t)?'*':' ', target_driver_name(t));
}

bool cmd_targets(void)
{
 8000ad8:	b510      	push	{r4, lr}
	gdb_out("Available Targets:\n");
 8000ada:	4808      	ldr	r0, [pc, #32]	; (8000afc <cmd_targets+0x24>)
 8000adc:	f002 ff95 	bl	8003a0a <gdb_out>
	gdb_out("No. Att Driver\n");
 8000ae0:	4807      	ldr	r0, [pc, #28]	; (8000b00 <cmd_targets+0x28>)
 8000ae2:	f002 ff92 	bl	8003a0a <gdb_out>
	if (!target_foreach(display_target, NULL)) {
 8000ae6:	4807      	ldr	r0, [pc, #28]	; (8000b04 <cmd_targets+0x2c>)
 8000ae8:	2100      	movs	r1, #0
 8000aea:	f007 fa7d 	bl	8007fe8 <target_foreach>
 8000aee:	1e04      	subs	r4, r0, #0
 8000af0:	d102      	bne.n	8000af8 <cmd_targets+0x20>
		gdb_out("No usable targets found.\n");
 8000af2:	4805      	ldr	r0, [pc, #20]	; (8000b08 <cmd_targets+0x30>)
 8000af4:	f002 ff89 	bl	8003a0a <gdb_out>
		return false;
	}

	return true;
}
 8000af8:	1c20      	adds	r0, r4, #0
 8000afa:	bd10      	pop	{r4, pc}
 8000afc:	0800fc8e 	.word	0x0800fc8e
 8000b00:	0800fca2 	.word	0x0800fca2
 8000b04:	08000b0d 	.word	0x08000b0d
 8000b08:	0800fcb2 	.word	0x0800fcb2

08000b0c <display_target>:
	return true;

}

static void display_target(int i, target *t, void *context)
{
 8000b0c:	b570      	push	{r4, r5, r6, lr}
 8000b0e:	1c06      	adds	r6, r0, #0
	(void)context;
	gdb_outf("%2d   %c  %s\n", i, target_attached(t)?'*':' ', target_driver_name(t));
 8000b10:	1c08      	adds	r0, r1, #0
	return true;

}

static void display_target(int i, target *t, void *context)
{
 8000b12:	1c0d      	adds	r5, r1, #0
	(void)context;
	gdb_outf("%2d   %c  %s\n", i, target_attached(t)?'*':' ', target_driver_name(t));
 8000b14:	f007 fc84 	bl	8008420 <target_attached>
 8000b18:	242a      	movs	r4, #42	; 0x2a
 8000b1a:	2800      	cmp	r0, #0
 8000b1c:	d100      	bne.n	8000b20 <display_target+0x14>
 8000b1e:	3c0a      	subs	r4, #10
 8000b20:	1c28      	adds	r0, r5, #0
 8000b22:	f007 fd01 	bl	8008528 <target_driver_name>
 8000b26:	1c31      	adds	r1, r6, #0
 8000b28:	1c03      	adds	r3, r0, #0
 8000b2a:	1c22      	adds	r2, r4, #0
 8000b2c:	4801      	ldr	r0, [pc, #4]	; (8000b34 <display_target+0x28>)
 8000b2e:	f002 ffa5 	bl	8003a7c <gdb_outf>
}
 8000b32:	bd70      	pop	{r4, r5, r6, pc}
 8000b34:	0800fccc 	.word	0x0800fccc

08000b38 <cmd_swdp_scan>:
	morse(NULL, false);
	return true;
}

bool cmd_swdp_scan(void)
{
 8000b38:	b530      	push	{r4, r5, lr}
 8000b3a:	b09f      	sub	sp, #124	; 0x7c
	gdb_outf("Target voltage: %s\n", platform_target_voltage());
 8000b3c:	f004 fdc3 	bl	80056c6 <platform_target_voltage>
 8000b40:	1c01      	adds	r1, r0, #0
 8000b42:	4823      	ldr	r0, [pc, #140]	; (8000bd0 <cmd_swdp_scan+0x98>)
 8000b44:	f002 ff9a 	bl	8003a7c <gdb_outf>

	if(connect_assert_srst)
 8000b48:	4b22      	ldr	r3, [pc, #136]	; (8000bd4 <cmd_swdp_scan+0x9c>)
 8000b4a:	781b      	ldrb	r3, [r3, #0]
 8000b4c:	2b00      	cmp	r3, #0
 8000b4e:	d10f      	bne.n	8000b70 <cmd_swdp_scan+0x38>
		platform_srst_set_val(true); /* will be deasserted after attach */

	int devs = -1;
	volatile struct exception e;
	TRY_CATCH (e, EXCEPTION_ALL) {
 8000b50:	2200      	movs	r2, #0
 8000b52:	4921      	ldr	r1, [pc, #132]	; (8000bd8 <cmd_swdp_scan+0xa0>)
 8000b54:	9203      	str	r2, [sp, #12]
 8000b56:	6808      	ldr	r0, [r1, #0]
 8000b58:	3a01      	subs	r2, #1
 8000b5a:	ab03      	add	r3, sp, #12
 8000b5c:	9205      	str	r2, [sp, #20]
 8000b5e:	901d      	str	r0, [sp, #116]	; 0x74
 8000b60:	a806      	add	r0, sp, #24
 8000b62:	600b      	str	r3, [r1, #0]
	gdb_outf("Target voltage: %s\n", platform_target_voltage());

	if(connect_assert_srst)
		platform_srst_set_val(true); /* will be deasserted after attach */

	int devs = -1;
 8000b64:	9201      	str	r2, [sp, #4]
	volatile struct exception e;
	TRY_CATCH (e, EXCEPTION_ALL) {
 8000b66:	f00c f825 	bl	800cbb4 <setjmp>
 8000b6a:	2800      	cmp	r0, #0
 8000b6c:	d10f      	bne.n	8000b8e <cmd_swdp_scan+0x56>
 8000b6e:	e003      	b.n	8000b78 <cmd_swdp_scan+0x40>
bool cmd_swdp_scan(void)
{
	gdb_outf("Target voltage: %s\n", platform_target_voltage());

	if(connect_assert_srst)
		platform_srst_set_val(true); /* will be deasserted after attach */
 8000b70:	2001      	movs	r0, #1
 8000b72:	f004 fd8f 	bl	8005694 <platform_srst_set_val>
 8000b76:	e7eb      	b.n	8000b50 <cmd_swdp_scan+0x18>

	int devs = -1;
	volatile struct exception e;
	TRY_CATCH (e, EXCEPTION_ALL) {
 8000b78:	4d17      	ldr	r5, [pc, #92]	; (8000bd8 <cmd_swdp_scan+0xa0>)
 8000b7a:	ab03      	add	r3, sp, #12
 8000b7c:	682c      	ldr	r4, [r5, #0]
 8000b7e:	429c      	cmp	r4, r3
 8000b80:	d105      	bne.n	8000b8e <cmd_swdp_scan+0x56>
		devs = adiv5_swdp_scan();
 8000b82:	f7ff feff 	bl	8000984 <adiv5_swdp_scan>
	if(connect_assert_srst)
		platform_srst_set_val(true); /* will be deasserted after attach */

	int devs = -1;
	volatile struct exception e;
	TRY_CATCH (e, EXCEPTION_ALL) {
 8000b86:	6ea3      	ldr	r3, [r4, #104]	; 0x68
		devs = adiv5_swdp_scan();
 8000b88:	9001      	str	r0, [sp, #4]
	if(connect_assert_srst)
		platform_srst_set_val(true); /* will be deasserted after attach */

	int devs = -1;
	volatile struct exception e;
	TRY_CATCH (e, EXCEPTION_ALL) {
 8000b8a:	602b      	str	r3, [r5, #0]
 8000b8c:	e7f4      	b.n	8000b78 <cmd_swdp_scan+0x40>
		devs = adiv5_swdp_scan();
	}
	switch (e.type) {
 8000b8e:	9b03      	ldr	r3, [sp, #12]
 8000b90:	2b01      	cmp	r3, #1
 8000b92:	d005      	beq.n	8000ba0 <cmd_swdp_scan+0x68>
 8000b94:	2b02      	cmp	r3, #2
 8000b96:	d107      	bne.n	8000ba8 <cmd_swdp_scan+0x70>
	case EXCEPTION_TIMEOUT:
		gdb_outf("Timeout during scan. Is target stuck in WFI?\n");
 8000b98:	4810      	ldr	r0, [pc, #64]	; (8000bdc <cmd_swdp_scan+0xa4>)
 8000b9a:	f002 ff6f 	bl	8003a7c <gdb_outf>
 8000b9e:	e003      	b.n	8000ba8 <cmd_swdp_scan+0x70>
		break;
	case EXCEPTION_ERROR:
		gdb_outf("Exception: %s\n", e.msg);
 8000ba0:	9904      	ldr	r1, [sp, #16]
 8000ba2:	480f      	ldr	r0, [pc, #60]	; (8000be0 <cmd_swdp_scan+0xa8>)
 8000ba4:	f002 ff6a 	bl	8003a7c <gdb_outf>
		break;
	}

	if(devs <= 0) {
 8000ba8:	9b01      	ldr	r3, [sp, #4]
 8000baa:	2b00      	cmp	r3, #0
 8000bac:	dc07      	bgt.n	8000bbe <cmd_swdp_scan+0x86>
		platform_srst_set_val(false);
 8000bae:	2000      	movs	r0, #0
 8000bb0:	f004 fd70 	bl	8005694 <platform_srst_set_val>
		gdb_out("SW-DP scan failed!\n");
 8000bb4:	480b      	ldr	r0, [pc, #44]	; (8000be4 <cmd_swdp_scan+0xac>)
 8000bb6:	f002 ff28 	bl	8003a0a <gdb_out>
		return false;
 8000bba:	2000      	movs	r0, #0
 8000bbc:	e006      	b.n	8000bcc <cmd_swdp_scan+0x94>
	}

	cmd_targets();
 8000bbe:	f7ff ff8b 	bl	8000ad8 <cmd_targets>
	morse(NULL, false);
 8000bc2:	2000      	movs	r0, #0
 8000bc4:	1c01      	adds	r1, r0, #0
 8000bc6:	f004 f813 	bl	8004bf0 <morse>
	return true;
 8000bca:	2001      	movs	r0, #1

}
 8000bcc:	b01f      	add	sp, #124	; 0x7c
 8000bce:	bd30      	pop	{r4, r5, pc}
 8000bd0:	0800fcda 	.word	0x0800fcda
 8000bd4:	20000138 	.word	0x20000138
 8000bd8:	20001dc4 	.word	0x20001dc4
 8000bdc:	0800fcee 	.word	0x0800fcee
 8000be0:	0800fd1c 	.word	0x0800fd1c
 8000be4:	0800fd2b 	.word	0x0800fd2b

08000be8 <cmd_jtag_scan>:

	return true;
}

static bool cmd_jtag_scan(target *t, int argc, char **argv)
{
 8000be8:	b5b0      	push	{r4, r5, r7, lr}
	(void)t;
	uint8_t irlens[argc];
 8000bea:	1c0b      	adds	r3, r1, #0

	return true;
}

static bool cmd_jtag_scan(target *t, int argc, char **argv)
{
 8000bec:	b0a0      	sub	sp, #128	; 0x80
 8000bee:	1c15      	adds	r5, r2, #0
	(void)t;
	uint8_t irlens[argc];
 8000bf0:	466a      	mov	r2, sp
 8000bf2:	3307      	adds	r3, #7
 8000bf4:	08db      	lsrs	r3, r3, #3
 8000bf6:	00db      	lsls	r3, r3, #3
 8000bf8:	1ad3      	subs	r3, r2, r3

	return true;
}

static bool cmd_jtag_scan(target *t, int argc, char **argv)
{
 8000bfa:	af00      	add	r7, sp, #0
	(void)t;
	uint8_t irlens[argc];
 8000bfc:	469d      	mov	sp, r3
 8000bfe:	60bb      	str	r3, [r7, #8]

	return true;
}

static bool cmd_jtag_scan(target *t, int argc, char **argv)
{
 8000c00:	60f9      	str	r1, [r7, #12]
	(void)t;
	uint8_t irlens[argc];

	gdb_outf("Target voltage: %s\n", platform_target_voltage());
 8000c02:	f004 fd60 	bl	80056c6 <platform_target_voltage>
 8000c06:	1c01      	adds	r1, r0, #0
 8000c08:	4832      	ldr	r0, [pc, #200]	; (8000cd4 <cmd_jtag_scan+0xec>)
 8000c0a:	f002 ff37 	bl	8003a7c <gdb_outf>

	if (argc > 1) {
 8000c0e:	68fb      	ldr	r3, [r7, #12]
 8000c10:	2b01      	cmp	r3, #1
 8000c12:	dd11      	ble.n	8000c38 <cmd_jtag_scan+0x50>
 8000c14:	2401      	movs	r4, #1
 8000c16:	00a3      	lsls	r3, r4, #2
		/* Accept a list of IR lengths on command line */
		for (int i = 1; i < argc; i++)
			irlens[i-1] = atoi(argv[i]);
 8000c18:	58e8      	ldr	r0, [r5, r3]
 8000c1a:	f00b fe20 	bl	800c85e <atoi>
 8000c1e:	68ba      	ldr	r2, [r7, #8]
 8000c20:	1e63      	subs	r3, r4, #1
 8000c22:	54d0      	strb	r0, [r2, r3]

	gdb_outf("Target voltage: %s\n", platform_target_voltage());

	if (argc > 1) {
		/* Accept a list of IR lengths on command line */
		for (int i = 1; i < argc; i++)
 8000c24:	68fb      	ldr	r3, [r7, #12]
 8000c26:	3401      	adds	r4, #1
 8000c28:	429c      	cmp	r4, r3
 8000c2a:	d1f4      	bne.n	8000c16 <cmd_jtag_scan+0x2e>
			irlens[i-1] = atoi(argv[i]);
		irlens[argc-1] = 0;
 8000c2c:	1c13      	adds	r3, r2, #0
 8000c2e:	68fa      	ldr	r2, [r7, #12]
 8000c30:	189b      	adds	r3, r3, r2
 8000c32:	2200      	movs	r2, #0
 8000c34:	3b01      	subs	r3, #1
 8000c36:	701a      	strb	r2, [r3, #0]
	}

	if(connect_assert_srst)
 8000c38:	4b27      	ldr	r3, [pc, #156]	; (8000cd8 <cmd_jtag_scan+0xf0>)
 8000c3a:	781b      	ldrb	r3, [r3, #0]
 8000c3c:	2b00      	cmp	r3, #0
 8000c3e:	d112      	bne.n	8000c66 <cmd_jtag_scan+0x7e>
		platform_srst_set_val(true); /* will be deasserted after attach */

	int devs = -1;
	volatile struct exception e;
	TRY_CATCH (e, EXCEPTION_ALL) {
 8000c40:	2200      	movs	r2, #0
 8000c42:	2314      	movs	r3, #20
 8000c44:	4925      	ldr	r1, [pc, #148]	; (8000cdc <cmd_jtag_scan+0xf4>)
 8000c46:	18fb      	adds	r3, r7, r3
 8000c48:	6808      	ldr	r0, [r1, #0]
 8000c4a:	617a      	str	r2, [r7, #20]
 8000c4c:	3a01      	subs	r2, #1
 8000c4e:	609a      	str	r2, [r3, #8]
 8000c50:	600b      	str	r3, [r1, #0]
 8000c52:	6698      	str	r0, [r3, #104]	; 0x68
 8000c54:	2310      	movs	r3, #16
	}

	if(connect_assert_srst)
		platform_srst_set_val(true); /* will be deasserted after attach */

	int devs = -1;
 8000c56:	607a      	str	r2, [r7, #4]
	volatile struct exception e;
	TRY_CATCH (e, EXCEPTION_ALL) {
 8000c58:	18fa      	adds	r2, r7, r3
 8000c5a:	18d0      	adds	r0, r2, r3
 8000c5c:	f00b ffaa 	bl	800cbb4 <setjmp>
 8000c60:	2800      	cmp	r0, #0
 8000c62:	d115      	bne.n	8000c90 <cmd_jtag_scan+0xa8>
 8000c64:	e00e      	b.n	8000c84 <cmd_jtag_scan+0x9c>
			irlens[i-1] = atoi(argv[i]);
		irlens[argc-1] = 0;
	}

	if(connect_assert_srst)
		platform_srst_set_val(true); /* will be deasserted after attach */
 8000c66:	2001      	movs	r0, #1
 8000c68:	f004 fd14 	bl	8005694 <platform_srst_set_val>
 8000c6c:	e7e8      	b.n	8000c40 <cmd_jtag_scan+0x58>

	int devs = -1;
	volatile struct exception e;
	TRY_CATCH (e, EXCEPTION_ALL) {
		devs = jtag_scan(argc > 1 ? irlens : NULL);
 8000c6e:	68fb      	ldr	r3, [r7, #12]
 8000c70:	2000      	movs	r0, #0
 8000c72:	2b01      	cmp	r3, #1
 8000c74:	dd00      	ble.n	8000c78 <cmd_jtag_scan+0x90>
}

static bool cmd_jtag_scan(target *t, int argc, char **argv)
{
	(void)t;
	uint8_t irlens[argc];
 8000c76:	68b8      	ldr	r0, [r7, #8]
		platform_srst_set_val(true); /* will be deasserted after attach */

	int devs = -1;
	volatile struct exception e;
	TRY_CATCH (e, EXCEPTION_ALL) {
		devs = jtag_scan(argc > 1 ? irlens : NULL);
 8000c78:	f002 ff4e 	bl	8003b18 <jtag_scan>
	if(connect_assert_srst)
		platform_srst_set_val(true); /* will be deasserted after attach */

	int devs = -1;
	volatile struct exception e;
	TRY_CATCH (e, EXCEPTION_ALL) {
 8000c7c:	6ffa      	ldr	r2, [r7, #124]	; 0x7c
 8000c7e:	4b17      	ldr	r3, [pc, #92]	; (8000cdc <cmd_jtag_scan+0xf4>)
		devs = jtag_scan(argc > 1 ? irlens : NULL);
 8000c80:	6078      	str	r0, [r7, #4]
	if(connect_assert_srst)
		platform_srst_set_val(true); /* will be deasserted after attach */

	int devs = -1;
	volatile struct exception e;
	TRY_CATCH (e, EXCEPTION_ALL) {
 8000c82:	601a      	str	r2, [r3, #0]
 8000c84:	4b15      	ldr	r3, [pc, #84]	; (8000cdc <cmd_jtag_scan+0xf4>)
 8000c86:	681a      	ldr	r2, [r3, #0]
 8000c88:	2314      	movs	r3, #20
 8000c8a:	18fb      	adds	r3, r7, r3
 8000c8c:	429a      	cmp	r2, r3
 8000c8e:	d0ee      	beq.n	8000c6e <cmd_jtag_scan+0x86>
		devs = jtag_scan(argc > 1 ? irlens : NULL);
	}
	switch (e.type) {
 8000c90:	697b      	ldr	r3, [r7, #20]
 8000c92:	2b01      	cmp	r3, #1
 8000c94:	d005      	beq.n	8000ca2 <cmd_jtag_scan+0xba>
 8000c96:	2b02      	cmp	r3, #2
 8000c98:	d107      	bne.n	8000caa <cmd_jtag_scan+0xc2>
	case EXCEPTION_TIMEOUT:
		gdb_outf("Timeout during scan. Is target stuck in WFI?\n");
 8000c9a:	4811      	ldr	r0, [pc, #68]	; (8000ce0 <cmd_jtag_scan+0xf8>)
 8000c9c:	f002 feee 	bl	8003a7c <gdb_outf>
 8000ca0:	e003      	b.n	8000caa <cmd_jtag_scan+0xc2>
		break;
	case EXCEPTION_ERROR:
		gdb_outf("Exception: %s\n", e.msg);
 8000ca2:	69b9      	ldr	r1, [r7, #24]
 8000ca4:	480f      	ldr	r0, [pc, #60]	; (8000ce4 <cmd_jtag_scan+0xfc>)
 8000ca6:	f002 fee9 	bl	8003a7c <gdb_outf>
		break;
	}

	if(devs <= 0) {
 8000caa:	687b      	ldr	r3, [r7, #4]
 8000cac:	2b00      	cmp	r3, #0
 8000cae:	dc07      	bgt.n	8000cc0 <cmd_jtag_scan+0xd8>
		platform_srst_set_val(false);
 8000cb0:	2000      	movs	r0, #0
 8000cb2:	f004 fcef 	bl	8005694 <platform_srst_set_val>
		gdb_out("JTAG device scan failed!\n");
 8000cb6:	480c      	ldr	r0, [pc, #48]	; (8000ce8 <cmd_jtag_scan+0x100>)
 8000cb8:	f002 fea7 	bl	8003a0a <gdb_out>
		return false;
 8000cbc:	2000      	movs	r0, #0
 8000cbe:	e006      	b.n	8000cce <cmd_jtag_scan+0xe6>
	}
	cmd_targets();
 8000cc0:	f7ff ff0a 	bl	8000ad8 <cmd_targets>
	morse(NULL, false);
 8000cc4:	2000      	movs	r0, #0
 8000cc6:	1c01      	adds	r1, r0, #0
 8000cc8:	f003 ff92 	bl	8004bf0 <morse>
	return true;
 8000ccc:	2001      	movs	r0, #1
}
 8000cce:	46bd      	mov	sp, r7
 8000cd0:	b020      	add	sp, #128	; 0x80
 8000cd2:	bdb0      	pop	{r4, r5, r7, pc}
 8000cd4:	0800fcda 	.word	0x0800fcda
 8000cd8:	20000138 	.word	0x20000138
 8000cdc:	20001dc4 	.word	0x20001dc4
 8000ce0:	0800fcee 	.word	0x0800fcee
 8000ce4:	0800fd1c 	.word	0x0800fd1c
 8000ce8:	0800fd3f 	.word	0x0800fd3f

08000cec <cmd_help>:

	return true;
}

bool cmd_help(target *t)
{
 8000cec:	b538      	push	{r3, r4, r5, lr}
 8000cee:	1c05      	adds	r5, r0, #0
	const struct command_s *c;

	gdb_out("General commands:\n");
 8000cf0:	480b      	ldr	r0, [pc, #44]	; (8000d20 <cmd_help+0x34>)
 8000cf2:	f002 fe8a 	bl	8003a0a <gdb_out>
 8000cf6:	4c0b      	ldr	r4, [pc, #44]	; (8000d24 <cmd_help+0x38>)
 8000cf8:	3408      	adds	r4, #8
 8000cfa:	1c23      	adds	r3, r4, #0
 8000cfc:	3b08      	subs	r3, #8
	for(c = cmd_list; c->cmd; c++)
 8000cfe:	6819      	ldr	r1, [r3, #0]
 8000d00:	2900      	cmp	r1, #0
 8000d02:	d005      	beq.n	8000d10 <cmd_help+0x24>
		gdb_outf("\t%s -- %s\n", c->cmd, c->help);
 8000d04:	6822      	ldr	r2, [r4, #0]
 8000d06:	4808      	ldr	r0, [pc, #32]	; (8000d28 <cmd_help+0x3c>)
 8000d08:	f002 feb8 	bl	8003a7c <gdb_outf>
 8000d0c:	340c      	adds	r4, #12
 8000d0e:	e7f4      	b.n	8000cfa <cmd_help+0xe>

	if (!t)
 8000d10:	2d00      	cmp	r5, #0
 8000d12:	d002      	beq.n	8000d1a <cmd_help+0x2e>
		return -1;

	target_command_help(t);
 8000d14:	1c28      	adds	r0, r5, #0
 8000d16:	f007 fc76 	bl	8008606 <target_command_help>

	return true;
}
 8000d1a:	2001      	movs	r0, #1
 8000d1c:	bd38      	pop	{r3, r4, r5, pc}
 8000d1e:	46c0      	nop			; (mov r8, r8)
 8000d20:	0800fd59 	.word	0x0800fd59
 8000d24:	0800fb18 	.word	0x0800fb18
 8000d28:	0800fd6c 	.word	0x0800fd6c

08000d2c <cmd_connect_srst>:
		gdb_outf("%s\n", morse_msg);
	return true;
}

static bool cmd_connect_srst(target *t, int argc, const char **argv)
{
 8000d2c:	b510      	push	{r4, lr}
 8000d2e:	4c0a      	ldr	r4, [pc, #40]	; (8000d58 <cmd_connect_srst+0x2c>)
	(void)t;
	if (argc == 1)
 8000d30:	2901      	cmp	r1, #1
 8000d32:	d108      	bne.n	8000d46 <cmd_connect_srst+0x1a>
		gdb_outf("Assert SRST during connect: %s\n",
 8000d34:	7823      	ldrb	r3, [r4, #0]
 8000d36:	4909      	ldr	r1, [pc, #36]	; (8000d5c <cmd_connect_srst+0x30>)
 8000d38:	2b00      	cmp	r3, #0
 8000d3a:	d100      	bne.n	8000d3e <cmd_connect_srst+0x12>
 8000d3c:	4908      	ldr	r1, [pc, #32]	; (8000d60 <cmd_connect_srst+0x34>)
 8000d3e:	4809      	ldr	r0, [pc, #36]	; (8000d64 <cmd_connect_srst+0x38>)
 8000d40:	f002 fe9c 	bl	8003a7c <gdb_outf>
 8000d44:	e006      	b.n	8000d54 <cmd_connect_srst+0x28>
			 connect_assert_srst ? "enabled" : "disabled");
	else
		connect_assert_srst = !strcmp(argv[1], "enable");
 8000d46:	6850      	ldr	r0, [r2, #4]
 8000d48:	4907      	ldr	r1, [pc, #28]	; (8000d68 <cmd_connect_srst+0x3c>)
 8000d4a:	f00c f863 	bl	800ce14 <strcmp>
 8000d4e:	4243      	negs	r3, r0
 8000d50:	4143      	adcs	r3, r0
 8000d52:	7023      	strb	r3, [r4, #0]
	return true;
}
 8000d54:	2001      	movs	r0, #1
 8000d56:	bd10      	pop	{r4, pc}
 8000d58:	20000138 	.word	0x20000138
 8000d5c:	0800fb90 	.word	0x0800fb90
 8000d60:	0800fb98 	.word	0x0800fb98
 8000d64:	0800fd77 	.word	0x0800fd77
 8000d68:	0800fba1 	.word	0x0800fba1

08000d6c <command_process>:
	const struct command_s *c;
	int argc = 0;
	const char **argv;

	/* Initial estimate for argc */
	for(char *s = cmd; *s; s++)
 8000d6c:	1c0a      	adds	r2, r1, #0
#endif

int command_process(target *t, char *cmd)
{
	const struct command_s *c;
	int argc = 0;
 8000d6e:	2300      	movs	r3, #0
#ifdef PLATFORM_HAS_DEBUG
bool debug_bmp;
#endif

int command_process(target *t, char *cmd)
{
 8000d70:	b5f0      	push	{r4, r5, r6, r7, lr}
 8000d72:	b085      	sub	sp, #20
 8000d74:	af00      	add	r7, sp, #0
 8000d76:	60f8      	str	r0, [r7, #12]
	const struct command_s *c;
	int argc = 0;
	const char **argv;

	/* Initial estimate for argc */
	for(char *s = cmd; *s; s++)
 8000d78:	7814      	ldrb	r4, [r2, #0]
 8000d7a:	2c00      	cmp	r4, #0
 8000d7c:	d006      	beq.n	8000d8c <command_process+0x20>
		if((*s == ' ') || (*s == '\t')) argc++;
 8000d7e:	2c20      	cmp	r4, #32
 8000d80:	d001      	beq.n	8000d86 <command_process+0x1a>
 8000d82:	2c09      	cmp	r4, #9
 8000d84:	d100      	bne.n	8000d88 <command_process+0x1c>
 8000d86:	3301      	adds	r3, #1
	const struct command_s *c;
	int argc = 0;
	const char **argv;

	/* Initial estimate for argc */
	for(char *s = cmd; *s; s++)
 8000d88:	3201      	adds	r2, #1
 8000d8a:	e7f5      	b.n	8000d78 <command_process+0xc>
		if((*s == ' ') || (*s == '\t')) argc++;

	argv = alloca(sizeof(const char *) * argc);
 8000d8c:	466a      	mov	r2, sp
 8000d8e:	009b      	lsls	r3, r3, #2
 8000d90:	330e      	adds	r3, #14
 8000d92:	08db      	lsrs	r3, r3, #3
 8000d94:	00db      	lsls	r3, r3, #3
 8000d96:	1ad3      	subs	r3, r2, r3
 8000d98:	469d      	mov	sp, r3

	/* Tokenize cmd to find argv */
	for(argc = 0, argv[argc] = strtok(cmd, " \t");
 8000d9a:	1c08      	adds	r0, r1, #0
 8000d9c:	491f      	ldr	r1, [pc, #124]	; (8000e1c <command_process+0xb0>)
 8000d9e:	f00c f899 	bl	800ced4 <strtok>

	/* Initial estimate for argc */
	for(char *s = cmd; *s; s++)
		if((*s == ' ') || (*s == '\t')) argc++;

	argv = alloca(sizeof(const char *) * argc);
 8000da2:	466d      	mov	r5, sp
 8000da4:	466e      	mov	r6, sp
 8000da6:	4b1d      	ldr	r3, [pc, #116]	; (8000e1c <command_process+0xb0>)

	/* Tokenize cmd to find argv */
	for(argc = 0, argv[argc] = strtok(cmd, " \t");
 8000da8:	9000      	str	r0, [sp, #0]
 8000daa:	60bb      	str	r3, [r7, #8]
 8000dac:	3604      	adds	r6, #4
 8000dae:	1f33      	subs	r3, r6, #4
 8000db0:	681b      	ldr	r3, [r3, #0]
 8000db2:	2b00      	cmp	r3, #0
 8000db4:	d006      	beq.n	8000dc4 <command_process+0x58>
		argv[argc]; argv[++argc] = strtok(NULL, " \t"));
 8000db6:	2000      	movs	r0, #0
 8000db8:	68b9      	ldr	r1, [r7, #8]
 8000dba:	f00c f88b 	bl	800ced4 <strtok>
 8000dbe:	3401      	adds	r4, #1
 8000dc0:	6030      	str	r0, [r6, #0]
 8000dc2:	e7f3      	b.n	8000dac <command_process+0x40>
		if((*s == ' ') || (*s == '\t')) argc++;

	argv = alloca(sizeof(const char *) * argc);

	/* Tokenize cmd to find argv */
	for(argc = 0, argv[argc] = strtok(cmd, " \t");
 8000dc4:	4e16      	ldr	r6, [pc, #88]	; (8000e20 <command_process+0xb4>)
		argv[argc]; argv[++argc] = strtok(NULL, " \t"));

	/* Look for match and call handler */
	for(c = cmd_list; c->cmd; c++) {
 8000dc6:	6833      	ldr	r3, [r6, #0]
 8000dc8:	60bb      	str	r3, [r7, #8]
 8000dca:	2b00      	cmp	r3, #0
 8000dcc:	d018      	beq.n	8000e00 <command_process+0x94>
		/* Accept a partial match as GDB does.
		 * So 'mon ver' will match 'monitor version'
		 */
		if ((argc == 0) || !strncmp(argv[0], c->cmd, strlen(argv[0])))
 8000dce:	2c00      	cmp	r4, #0
 8000dd0:	d108      	bne.n	8000de4 <command_process+0x78>
			return !c->handler(t, argc, argv);
 8000dd2:	6873      	ldr	r3, [r6, #4]
 8000dd4:	68f8      	ldr	r0, [r7, #12]
 8000dd6:	1c21      	adds	r1, r4, #0
 8000dd8:	1c2a      	adds	r2, r5, #0
 8000dda:	4798      	blx	r3
 8000ddc:	2301      	movs	r3, #1
 8000dde:	4058      	eors	r0, r3
 8000de0:	b2c0      	uxtb	r0, r0
 8000de2:	e018      	b.n	8000e16 <command_process+0xaa>
	/* Look for match and call handler */
	for(c = cmd_list; c->cmd; c++) {
		/* Accept a partial match as GDB does.
		 * So 'mon ver' will match 'monitor version'
		 */
		if ((argc == 0) || !strncmp(argv[0], c->cmd, strlen(argv[0])))
 8000de4:	682b      	ldr	r3, [r5, #0]
 8000de6:	1c18      	adds	r0, r3, #0
 8000de8:	607b      	str	r3, [r7, #4]
 8000dea:	f00c f81d 	bl	800ce28 <strlen>
 8000dee:	68b9      	ldr	r1, [r7, #8]
 8000df0:	1c02      	adds	r2, r0, #0
 8000df2:	6878      	ldr	r0, [r7, #4]
 8000df4:	f00c f846 	bl	800ce84 <strncmp>
 8000df8:	2800      	cmp	r0, #0
 8000dfa:	d0ea      	beq.n	8000dd2 <command_process+0x66>
	/* Tokenize cmd to find argv */
	for(argc = 0, argv[argc] = strtok(cmd, " \t");
		argv[argc]; argv[++argc] = strtok(NULL, " \t"));

	/* Look for match and call handler */
	for(c = cmd_list; c->cmd; c++) {
 8000dfc:	360c      	adds	r6, #12
 8000dfe:	e7e2      	b.n	8000dc6 <command_process+0x5a>
		 */
		if ((argc == 0) || !strncmp(argv[0], c->cmd, strlen(argv[0])))
			return !c->handler(t, argc, argv);
	}

	if (!t)
 8000e00:	68fb      	ldr	r3, [r7, #12]
 8000e02:	2b00      	cmp	r3, #0
 8000e04:	d005      	beq.n	8000e12 <command_process+0xa6>
		return -1;

	return target_command(t, argc, argv);
 8000e06:	1c18      	adds	r0, r3, #0
 8000e08:	1c21      	adds	r1, r4, #0
 8000e0a:	1c2a      	adds	r2, r5, #0
 8000e0c:	f007 fbc3 	bl	8008596 <target_command>
 8000e10:	e001      	b.n	8000e16 <command_process+0xaa>
		if ((argc == 0) || !strncmp(argv[0], c->cmd, strlen(argv[0])))
			return !c->handler(t, argc, argv);
	}

	if (!t)
		return -1;
 8000e12:	2001      	movs	r0, #1
 8000e14:	4240      	negs	r0, r0

	return target_command(t, argc, argv);
}
 8000e16:	46bd      	mov	sp, r7
 8000e18:	b005      	add	sp, #20
 8000e1a:	bdf0      	pop	{r4, r5, r6, r7, pc}
 8000e1c:	0800fd97 	.word	0x0800fd97
 8000e20:	0800fb18 	.word	0x0800fb18

08000e24 <cortexa_check_error>:
		priv->mmu_fault = true;
	}
}

static bool cortexa_check_error(target *t)
{
 8000e24:	b510      	push	{r4, lr}
	struct cortexa_priv *priv = t->priv;
 8000e26:	6ec4      	ldr	r4, [r0, #108]	; 0x6c
	ADIv5_AP_t *ahb = priv->ahb;
 8000e28:	68a3      	ldr	r3, [r4, #8]
 8000e2a:	34e8      	adds	r4, #232	; 0xe8
	bool err = (ahb && (adiv5_dp_error(ahb->dp)) != 0) || priv->mmu_fault;
 8000e2c:	2b00      	cmp	r3, #0
 8000e2e:	d101      	bne.n	8000e34 <cortexa_check_error+0x10>
 8000e30:	7820      	ldrb	r0, [r4, #0]
 8000e32:	e005      	b.n	8000e40 <cortexa_check_error+0x1c>
 8000e34:	6858      	ldr	r0, [r3, #4]
	return dp->dp_read(dp, addr);
}

static inline uint32_t adiv5_dp_error(ADIv5_DP_t *dp)
{
	return dp->error(dp);
 8000e36:	68c3      	ldr	r3, [r0, #12]
 8000e38:	4798      	blx	r3
 8000e3a:	2800      	cmp	r0, #0
 8000e3c:	d0f8      	beq.n	8000e30 <cortexa_check_error+0xc>
 8000e3e:	2001      	movs	r0, #1
	priv->mmu_fault = false;
 8000e40:	2300      	movs	r3, #0
 8000e42:	7023      	strb	r3, [r4, #0]
	return err;
 8000e44:	3301      	adds	r3, #1
 8000e46:	4018      	ands	r0, r3
}
 8000e48:	bd10      	pop	{r4, pc}

08000e4a <cortexa_regs_write>:
	struct cortexa_priv *priv = (struct cortexa_priv *)t->priv;
	memcpy(data, &priv->reg_cache, t->regs_size);
}

static void cortexa_regs_write(target *t, const void *data)
{
 8000e4a:	b508      	push	{r3, lr}
	struct cortexa_priv *priv = (struct cortexa_priv *)t->priv;
	memcpy(&priv->reg_cache, data, t->regs_size);
 8000e4c:	6ec3      	ldr	r3, [r0, #108]	; 0x6c
 8000e4e:	69c2      	ldr	r2, [r0, #28]
 8000e50:	3310      	adds	r3, #16
 8000e52:	1c18      	adds	r0, r3, #0
 8000e54:	f00b fd30 	bl	800c8b8 <memcpy>
}
 8000e58:	bd08      	pop	{r3, pc}

08000e5a <cortexa_regs_read>:
	uint32_t instr = MRC | DBGDTRRXint | ((regno & 0xf) << 12);
	apb_write(t, DBGITR, instr);
}

static void cortexa_regs_read(target *t, void *data)
{
 8000e5a:	b508      	push	{r3, lr}
	struct cortexa_priv *priv = (struct cortexa_priv *)t->priv;
	memcpy(data, &priv->reg_cache, t->regs_size);
 8000e5c:	6ec3      	ldr	r3, [r0, #108]	; 0x6c
 8000e5e:	69c2      	ldr	r2, [r0, #28]
 8000e60:	3310      	adds	r3, #16
 8000e62:	1c08      	adds	r0, r1, #0
 8000e64:	1c19      	adds	r1, r3, #0
 8000e66:	f00b fd27 	bl	800c8b8 <memcpy>
}
 8000e6a:	bd08      	pop	{r3, pc}

08000e6c <apb_write.isra.0>:
	"    <reg name=\"d14\" bitsize=\"64\" type=\"float\"/>"
	"    <reg name=\"d15\" bitsize=\"64\" type=\"float\"/>"
	"  </feature>"
	"</target>";

static void apb_write(target *t, uint16_t reg, uint32_t val)
 8000e6c:	b538      	push	{r3, r4, r5, lr}
{
	struct cortexa_priv *priv = t->priv;
	ADIv5_AP_t *ap = priv->apb;
	uint32_t addr = priv->base + 4*reg;
 8000e6e:	6803      	ldr	r3, [r0, #0]
 8000e70:	0089      	lsls	r1, r1, #2
	"    <reg name=\"d14\" bitsize=\"64\" type=\"float\"/>"
	"    <reg name=\"d15\" bitsize=\"64\" type=\"float\"/>"
	"  </feature>"
	"</target>";

static void apb_write(target *t, uint16_t reg, uint32_t val)
 8000e72:	1c15      	adds	r5, r2, #0
{
	struct cortexa_priv *priv = t->priv;
	ADIv5_AP_t *ap = priv->apb;
	uint32_t addr = priv->base + 4*reg;
 8000e74:	18ca      	adds	r2, r1, r3
	adiv5_ap_write(ap, ADIV5_AP_TAR, addr);
 8000e76:	2182      	movs	r1, #130	; 0x82
	"</target>";

static void apb_write(target *t, uint16_t reg, uint32_t val)
{
	struct cortexa_priv *priv = t->priv;
	ADIv5_AP_t *ap = priv->apb;
 8000e78:	6844      	ldr	r4, [r0, #4]
	uint32_t addr = priv->base + 4*reg;
	adiv5_ap_write(ap, ADIV5_AP_TAR, addr);
 8000e7a:	0049      	lsls	r1, r1, #1
 8000e7c:	1c20      	adds	r0, r4, #0
 8000e7e:	f7ff f967 	bl	8000150 <adiv5_ap_write>
}

static inline uint32_t adiv5_dp_low_access(struct ADIv5_DP_s *dp, uint8_t RnW,
                                           uint16_t addr, uint32_t value)
{
	return dp->low_access(dp, RnW, addr, value);
 8000e82:	2286      	movs	r2, #134	; 0x86
	adiv5_dp_low_access(ap->dp, ADIV5_LOW_WRITE, ADIV5_AP_DRW, val);
 8000e84:	6860      	ldr	r0, [r4, #4]
 8000e86:	1c2b      	adds	r3, r5, #0
 8000e88:	6904      	ldr	r4, [r0, #16]
 8000e8a:	2100      	movs	r1, #0
 8000e8c:	0052      	lsls	r2, r2, #1
 8000e8e:	47a0      	blx	r4
}
 8000e90:	bd38      	pop	{r3, r4, r5, pc}

08000e92 <write_gpreg>:
	/* Return value read from DCC channel */
	return apb_read(t, DBGDTRTX);
}

static void write_gpreg(target *t, uint8_t regno, uint32_t val)
{
 8000e92:	b538      	push	{r3, r4, r5, lr}
 8000e94:	1c0c      	adds	r4, r1, #0
 8000e96:	1c05      	adds	r5, r0, #0
	/* Write value to DCC channel */
	apb_write(t, DBGDTRRX, val);
 8000e98:	2120      	movs	r1, #32
 8000e9a:	6ec0      	ldr	r0, [r0, #108]	; 0x6c
 8000e9c:	f7ff ffe6 	bl	8000e6c <apb_write.isra.0>
	/* Run instruction to load register */
	uint32_t instr = MRC | DBGDTRRXint | ((regno & 0xf) << 12);
 8000ea0:	0724      	lsls	r4, r4, #28
 8000ea2:	4a04      	ldr	r2, [pc, #16]	; (8000eb4 <write_gpreg+0x22>)
 8000ea4:	0c24      	lsrs	r4, r4, #16
	apb_write(t, DBGITR, instr);
 8000ea6:	6ee8      	ldr	r0, [r5, #108]	; 0x6c
static void write_gpreg(target *t, uint8_t regno, uint32_t val)
{
	/* Write value to DCC channel */
	apb_write(t, DBGDTRRX, val);
	/* Run instruction to load register */
	uint32_t instr = MRC | DBGDTRRXint | ((regno & 0xf) << 12);
 8000ea8:	4322      	orrs	r2, r4
	apb_write(t, DBGITR, instr);
 8000eaa:	2121      	movs	r1, #33	; 0x21
 8000eac:	f7ff ffde 	bl	8000e6c <apb_write.isra.0>
}
 8000eb0:	bd38      	pop	{r3, r4, r5, pc}
 8000eb2:	46c0      	nop			; (mov r8, r8)
 8000eb4:	ee100e15 	.word	0xee100e15

08000eb8 <cortexa_regs_write_internal>:
	}
	priv->reg_cache.r[15] -= (priv->reg_cache.cpsr & CPSR_THUMB) ? 4 : 8;
}

static void cortexa_regs_write_internal(target *t)
{
 8000eb8:	b5f8      	push	{r3, r4, r5, r6, r7, lr}
	struct cortexa_priv *priv = (struct cortexa_priv *)t->priv;
 8000eba:	6ec6      	ldr	r6, [r0, #108]	; 0x6c
	}
	priv->reg_cache.r[15] -= (priv->reg_cache.cpsr & CPSR_THUMB) ? 4 : 8;
}

static void cortexa_regs_write_internal(target *t)
{
 8000ebc:	1c04      	adds	r4, r0, #0
 8000ebe:	1c37      	adds	r7, r6, #0
	struct cortexa_priv *priv = (struct cortexa_priv *)t->priv;
	/* First write back floats */
	for (int i = 0; i < 16; i++) {
 8000ec0:	2500      	movs	r5, #0
 8000ec2:	3758      	adds	r7, #88	; 0x58
		write_gpreg(t, 1, priv->reg_cache.d[i] >> 32);
 8000ec4:	687a      	ldr	r2, [r7, #4]
 8000ec6:	1c20      	adds	r0, r4, #0
 8000ec8:	2101      	movs	r1, #1
 8000eca:	f7ff ffe2 	bl	8000e92 <write_gpreg>
		write_gpreg(t, 0, priv->reg_cache.d[i]);
 8000ece:	683a      	ldr	r2, [r7, #0]
 8000ed0:	1c20      	adds	r0, r4, #0
 8000ed2:	2100      	movs	r1, #0
 8000ed4:	f7ff ffdd 	bl	8000e92 <write_gpreg>
		apb_write(t, DBGITR, 0xec410b10 | i); /* vmov d[i], r0, r1 */
 8000ed8:	4a19      	ldr	r2, [pc, #100]	; (8000f40 <cortexa_regs_write_internal+0x88>)
 8000eda:	6ee0      	ldr	r0, [r4, #108]	; 0x6c
 8000edc:	432a      	orrs	r2, r5
 8000ede:	2121      	movs	r1, #33	; 0x21

static void cortexa_regs_write_internal(target *t)
{
	struct cortexa_priv *priv = (struct cortexa_priv *)t->priv;
	/* First write back floats */
	for (int i = 0; i < 16; i++) {
 8000ee0:	3501      	adds	r5, #1
		write_gpreg(t, 1, priv->reg_cache.d[i] >> 32);
		write_gpreg(t, 0, priv->reg_cache.d[i]);
		apb_write(t, DBGITR, 0xec410b10 | i); /* vmov d[i], r0, r1 */
 8000ee2:	f7ff ffc3 	bl	8000e6c <apb_write.isra.0>
 8000ee6:	3708      	adds	r7, #8

static void cortexa_regs_write_internal(target *t)
{
	struct cortexa_priv *priv = (struct cortexa_priv *)t->priv;
	/* First write back floats */
	for (int i = 0; i < 16; i++) {
 8000ee8:	2d10      	cmp	r5, #16
 8000eea:	d1eb      	bne.n	8000ec4 <cortexa_regs_write_internal+0xc>
		write_gpreg(t, 1, priv->reg_cache.d[i] >> 32);
		write_gpreg(t, 0, priv->reg_cache.d[i]);
		apb_write(t, DBGITR, 0xec410b10 | i); /* vmov d[i], r0, r1 */
	}
	/* Write back FPSCR */
	write_gpreg(t, 0, priv->reg_cache.fpscr);
 8000eec:	1c20      	adds	r0, r4, #0
 8000eee:	2100      	movs	r1, #0
 8000ef0:	6d72      	ldr	r2, [r6, #84]	; 0x54
 8000ef2:	f7ff ffce 	bl	8000e92 <write_gpreg>
	apb_write(t, DBGITR, 0xeee10a10); /* vmsr fpscr, r0 */
 8000ef6:	6ee0      	ldr	r0, [r4, #108]	; 0x6c
 8000ef8:	2121      	movs	r1, #33	; 0x21
 8000efa:	4a12      	ldr	r2, [pc, #72]	; (8000f44 <cortexa_regs_write_internal+0x8c>)
 8000efc:	f7ff ffb6 	bl	8000e6c <apb_write.isra.0>
	/* Write back the CPSR */
	write_gpreg(t, 0, priv->reg_cache.cpsr);
 8000f00:	1c20      	adds	r0, r4, #0
 8000f02:	2100      	movs	r1, #0
 8000f04:	6d32      	ldr	r2, [r6, #80]	; 0x50
 8000f06:	f7ff ffc4 	bl	8000e92 <write_gpreg>
	apb_write(t, DBGITR, 0xe12ff000); /* msr CPSR_fsxc, r0 */
 8000f0a:	6ee0      	ldr	r0, [r4, #108]	; 0x6c
 8000f0c:	2121      	movs	r1, #33	; 0x21
 8000f0e:	4a0e      	ldr	r2, [pc, #56]	; (8000f48 <cortexa_regs_write_internal+0x90>)
 8000f10:	f7ff ffac 	bl	8000e6c <apb_write.isra.0>
	/* Write back PC, via r0.  MRC clobbers CPSR instead */
	write_gpreg(t, 0, priv->reg_cache.r[15]);
 8000f14:	1c20      	adds	r0, r4, #0
 8000f16:	2100      	movs	r1, #0
 8000f18:	6cf2      	ldr	r2, [r6, #76]	; 0x4c
 8000f1a:	f7ff ffba 	bl	8000e92 <write_gpreg>
	apb_write(t, DBGITR, 0xe1a0f000); /* mov pc, r0 */
 8000f1e:	6ee0      	ldr	r0, [r4, #108]	; 0x6c
 8000f20:	2121      	movs	r1, #33	; 0x21
 8000f22:	4a0a      	ldr	r2, [pc, #40]	; (8000f4c <cortexa_regs_write_internal+0x94>)
 8000f24:	f7ff ffa2 	bl	8000e6c <apb_write.isra.0>
	/* Finally the GP registers now that we're done using them */
	for (int i = 0; i < 15; i++) {
 8000f28:	2500      	movs	r5, #0
 8000f2a:	00ab      	lsls	r3, r5, #2
 8000f2c:	18f3      	adds	r3, r6, r3
		write_gpreg(t, i, priv->reg_cache.r[i]);
 8000f2e:	b2e9      	uxtb	r1, r5
 8000f30:	1c20      	adds	r0, r4, #0
 8000f32:	691a      	ldr	r2, [r3, #16]
	apb_write(t, DBGITR, 0xe12ff000); /* msr CPSR_fsxc, r0 */
	/* Write back PC, via r0.  MRC clobbers CPSR instead */
	write_gpreg(t, 0, priv->reg_cache.r[15]);
	apb_write(t, DBGITR, 0xe1a0f000); /* mov pc, r0 */
	/* Finally the GP registers now that we're done using them */
	for (int i = 0; i < 15; i++) {
 8000f34:	3501      	adds	r5, #1
		write_gpreg(t, i, priv->reg_cache.r[i]);
 8000f36:	f7ff ffac 	bl	8000e92 <write_gpreg>
	apb_write(t, DBGITR, 0xe12ff000); /* msr CPSR_fsxc, r0 */
	/* Write back PC, via r0.  MRC clobbers CPSR instead */
	write_gpreg(t, 0, priv->reg_cache.r[15]);
	apb_write(t, DBGITR, 0xe1a0f000); /* mov pc, r0 */
	/* Finally the GP registers now that we're done using them */
	for (int i = 0; i < 15; i++) {
 8000f3a:	2d0f      	cmp	r5, #15
 8000f3c:	d1f5      	bne.n	8000f2a <cortexa_regs_write_internal+0x72>
		write_gpreg(t, i, priv->reg_cache.r[i]);
	}
}
 8000f3e:	bdf8      	pop	{r3, r4, r5, r6, r7, pc}
 8000f40:	ec410b10 	.word	0xec410b10
 8000f44:	eee10a10 	.word	0xeee10a10
 8000f48:	e12ff000 	.word	0xe12ff000
 8000f4c:	e1a0f000 	.word	0xe1a0f000

08000f50 <cortexa_breakwatch_clear>:
		return 1;
	}
}

static int cortexa_breakwatch_clear(target *t, struct breakwatch *bw)
{
 8000f50:	b570      	push	{r4, r5, r6, lr}
	struct cortexa_priv *priv = t->priv;
	unsigned i = bw->reserved[0];
	switch (bw->type) {
 8000f52:	790c      	ldrb	r4, [r1, #4]
	}
}

static int cortexa_breakwatch_clear(target *t, struct breakwatch *bw)
{
	struct cortexa_priv *priv = t->priv;
 8000f54:	6ec6      	ldr	r6, [r0, #108]	; 0x6c
	unsigned i = bw->reserved[0];
 8000f56:	690d      	ldr	r5, [r1, #16]
	switch (bw->type) {
 8000f58:	2c00      	cmp	r4, #0
 8000f5a:	d002      	beq.n	8000f62 <cortexa_breakwatch_clear+0x12>
 8000f5c:	2c01      	cmp	r4, #1
 8000f5e:	d010      	beq.n	8000f82 <cortexa_breakwatch_clear+0x32>
 8000f60:	e023      	b.n	8000faa <cortexa_breakwatch_clear+0x5a>
	case TARGET_BREAK_SOFT:
		switch (bw->size) {
 8000f62:	68cb      	ldr	r3, [r1, #12]
 8000f64:	2b02      	cmp	r3, #2
 8000f66:	d006      	beq.n	8000f76 <cortexa_breakwatch_clear+0x26>
 8000f68:	2b04      	cmp	r3, #4
 8000f6a:	d120      	bne.n	8000fae <cortexa_breakwatch_clear+0x5e>
		case 2:
			target_mem_write16(t, bw->addr, i);
			return 0;
		case 4:
			target_mem_write32(t, bw->addr, i);
 8000f6c:	6889      	ldr	r1, [r1, #8]
 8000f6e:	1c2a      	adds	r2, r5, #0
 8000f70:	f007 fae4 	bl	800853c <target_mem_write32>
 8000f74:	e003      	b.n	8000f7e <cortexa_breakwatch_clear+0x2e>
	unsigned i = bw->reserved[0];
	switch (bw->type) {
	case TARGET_BREAK_SOFT:
		switch (bw->size) {
		case 2:
			target_mem_write16(t, bw->addr, i);
 8000f76:	b2aa      	uxth	r2, r5
 8000f78:	6889      	ldr	r1, [r1, #8]
 8000f7a:	f007 faf0 	bl	800855e <target_mem_write16>
			return 0;
		case 4:
			target_mem_write32(t, bw->addr, i);
			return 0;
 8000f7e:	1c20      	adds	r0, r4, #0
 8000f80:	e017      	b.n	8000fb2 <cortexa_breakwatch_clear+0x62>
		default:
			return -1;
		}
	case TARGET_BREAK_HARD:
		priv->hw_breakpoint_mask &= ~(1 << i);
 8000f82:	1c20      	adds	r0, r4, #0
 8000f84:	1c32      	adds	r2, r6, #0
 8000f86:	40a8      	lsls	r0, r5
		apb_write(t, DBGBCR(i), 0);
 8000f88:	1c29      	adds	r1, r5, #0
			return 0;
		default:
			return -1;
		}
	case TARGET_BREAK_HARD:
		priv->hw_breakpoint_mask &= ~(1 << i);
 8000f8a:	32dc      	adds	r2, #220	; 0xdc
 8000f8c:	8813      	ldrh	r3, [r2, #0]
		apb_write(t, DBGBCR(i), 0);
 8000f8e:	3150      	adds	r1, #80	; 0x50
			return 0;
		default:
			return -1;
		}
	case TARGET_BREAK_HARD:
		priv->hw_breakpoint_mask &= ~(1 << i);
 8000f90:	4383      	bics	r3, r0
 8000f92:	8013      	strh	r3, [r2, #0]
		apb_write(t, DBGBCR(i), 0);
 8000f94:	1c30      	adds	r0, r6, #0
 8000f96:	b289      	uxth	r1, r1
 8000f98:	2200      	movs	r2, #0
 8000f9a:	f7ff ff67 	bl	8000e6c <apb_write.isra.0>
		if (i == 0)
			priv->bcr0 = 0;
		return 0;
 8000f9e:	2000      	movs	r0, #0
			return -1;
		}
	case TARGET_BREAK_HARD:
		priv->hw_breakpoint_mask &= ~(1 << i);
		apb_write(t, DBGBCR(i), 0);
		if (i == 0)
 8000fa0:	4285      	cmp	r5, r0
 8000fa2:	d106      	bne.n	8000fb2 <cortexa_breakwatch_clear+0x62>
			priv->bcr0 = 0;
 8000fa4:	36e0      	adds	r6, #224	; 0xe0
 8000fa6:	6030      	str	r0, [r6, #0]
 8000fa8:	e003      	b.n	8000fb2 <cortexa_breakwatch_clear+0x62>
		return 0;
	default:
		return 1;
 8000faa:	2001      	movs	r0, #1
 8000fac:	e001      	b.n	8000fb2 <cortexa_breakwatch_clear+0x62>
			return 0;
		case 4:
			target_mem_write32(t, bw->addr, i);
			return 0;
		default:
			return -1;
 8000fae:	2001      	movs	r0, #1
 8000fb0:	4240      	negs	r0, r0
			priv->bcr0 = 0;
		return 0;
	default:
		return 1;
	}
}
 8000fb2:	bd70      	pop	{r4, r5, r6, pc}

08000fb4 <cortexa_halt_request>:
}

static void cortexa_halt_request(target *t)
{
	volatile struct exception e;
	TRY_CATCH (e, EXCEPTION_TIMEOUT) {
 8000fb4:	2200      	movs	r2, #0

	cortexa_attach(t);
}

static void cortexa_halt_request(target *t)
{
 8000fb6:	b530      	push	{r4, r5, lr}
 8000fb8:	b09f      	sub	sp, #124	; 0x7c
	volatile struct exception e;
	TRY_CATCH (e, EXCEPTION_TIMEOUT) {
 8000fba:	9203      	str	r2, [sp, #12]
 8000fbc:	3202      	adds	r2, #2
 8000fbe:	9205      	str	r2, [sp, #20]
 8000fc0:	4a11      	ldr	r2, [pc, #68]	; (8001008 <cortexa_halt_request+0x54>)

	cortexa_attach(t);
}

static void cortexa_halt_request(target *t)
{
 8000fc2:	9001      	str	r0, [sp, #4]
	volatile struct exception e;
	TRY_CATCH (e, EXCEPTION_TIMEOUT) {
 8000fc4:	6811      	ldr	r1, [r2, #0]
 8000fc6:	ab03      	add	r3, sp, #12
 8000fc8:	a806      	add	r0, sp, #24
 8000fca:	911d      	str	r1, [sp, #116]	; 0x74
 8000fcc:	6013      	str	r3, [r2, #0]
 8000fce:	f00b fdf1 	bl	800cbb4 <setjmp>
 8000fd2:	2800      	cmp	r0, #0
 8000fd4:	d007      	beq.n	8000fe6 <cortexa_halt_request+0x32>
		apb_write(t, DBGDRCR, DBGDRCR_HRQ);
	}
	if (e.type) {
 8000fd6:	9b03      	ldr	r3, [sp, #12]
 8000fd8:	2b00      	cmp	r3, #0
 8000fda:	d012      	beq.n	8001002 <cortexa_halt_request+0x4e>
		tc_printf(t, "Timeout sending interrupt, is target in WFI?\n");
 8000fdc:	9801      	ldr	r0, [sp, #4]
 8000fde:	490b      	ldr	r1, [pc, #44]	; (800100c <cortexa_halt_request+0x58>)
 8000fe0:	f007 fb03 	bl	80085ea <tc_printf>
 8000fe4:	e00d      	b.n	8001002 <cortexa_halt_request+0x4e>
}

static void cortexa_halt_request(target *t)
{
	volatile struct exception e;
	TRY_CATCH (e, EXCEPTION_TIMEOUT) {
 8000fe6:	4d08      	ldr	r5, [pc, #32]	; (8001008 <cortexa_halt_request+0x54>)
 8000fe8:	ab03      	add	r3, sp, #12
 8000fea:	682c      	ldr	r4, [r5, #0]
 8000fec:	429c      	cmp	r4, r3
 8000fee:	d1f2      	bne.n	8000fd6 <cortexa_halt_request+0x22>
		apb_write(t, DBGDRCR, DBGDRCR_HRQ);
 8000ff0:	9b01      	ldr	r3, [sp, #4]
 8000ff2:	2124      	movs	r1, #36	; 0x24
 8000ff4:	6ed8      	ldr	r0, [r3, #108]	; 0x6c
 8000ff6:	2201      	movs	r2, #1
 8000ff8:	f7ff ff38 	bl	8000e6c <apb_write.isra.0>
}

static void cortexa_halt_request(target *t)
{
	volatile struct exception e;
	TRY_CATCH (e, EXCEPTION_TIMEOUT) {
 8000ffc:	6ea3      	ldr	r3, [r4, #104]	; 0x68
 8000ffe:	602b      	str	r3, [r5, #0]
 8001000:	e7f1      	b.n	8000fe6 <cortexa_halt_request+0x32>
		apb_write(t, DBGDRCR, DBGDRCR_HRQ);
	}
	if (e.type) {
		tc_printf(t, "Timeout sending interrupt, is target in WFI?\n");
	}
}
 8001002:	b01f      	add	sp, #124	; 0x7c
 8001004:	bd30      	pop	{r4, r5, pc}
 8001006:	46c0      	nop			; (mov r8, r8)
 8001008:	20001dc4 	.word	0x20001dc4
 800100c:	080105b2 	.word	0x080105b2

08001010 <apb_read.isra.1>:
	uint32_t addr = priv->base + 4*reg;
	adiv5_ap_write(ap, ADIV5_AP_TAR, addr);
	adiv5_dp_low_access(ap->dp, ADIV5_LOW_WRITE, ADIV5_AP_DRW, val);
}

static uint32_t apb_read(target *t, uint16_t reg)
 8001010:	b538      	push	{r3, r4, r5, lr}
{
	struct cortexa_priv *priv = t->priv;
	ADIv5_AP_t *ap = priv->apb;
	uint32_t addr = priv->base + 4*reg;
 8001012:	6803      	ldr	r3, [r0, #0]
 8001014:	0089      	lsls	r1, r1, #2
 8001016:	18ca      	adds	r2, r1, r3
	adiv5_ap_write(ap, ADIV5_AP_TAR, addr);
 8001018:	2182      	movs	r1, #130	; 0x82
}

static uint32_t apb_read(target *t, uint16_t reg)
{
	struct cortexa_priv *priv = t->priv;
	ADIv5_AP_t *ap = priv->apb;
 800101a:	6844      	ldr	r4, [r0, #4]
	uint32_t addr = priv->base + 4*reg;
	adiv5_ap_write(ap, ADIV5_AP_TAR, addr);
 800101c:	0049      	lsls	r1, r1, #1
 800101e:	1c20      	adds	r0, r4, #0
 8001020:	f7ff f896 	bl	8000150 <adiv5_ap_write>
 8001024:	2286      	movs	r2, #134	; 0x86
	adiv5_dp_low_access(ap->dp, ADIV5_LOW_READ, ADIV5_AP_DRW, 0);
 8001026:	6860      	ldr	r0, [r4, #4]
 8001028:	2101      	movs	r1, #1
 800102a:	6905      	ldr	r5, [r0, #16]
 800102c:	0052      	lsls	r2, r2, #1
 800102e:	2300      	movs	r3, #0
 8001030:	47a8      	blx	r5
	return adiv5_dp_low_access(ap->dp, ADIV5_LOW_READ, ADIV5_DP_RDBUFF, 0);
 8001032:	6860      	ldr	r0, [r4, #4]
 8001034:	2101      	movs	r1, #1
 8001036:	6904      	ldr	r4, [r0, #16]
 8001038:	220c      	movs	r2, #12
 800103a:	2300      	movs	r3, #0
 800103c:	47a0      	blx	r4
}
 800103e:	bd38      	pop	{r3, r4, r5, pc}

08001040 <read_gpreg>:
	apb_write(t, DBGDRCR, DBGDRCR_CSE | DBGDRCR_RRQ);
}


static uint32_t read_gpreg(target *t, uint8_t regno)
{
 8001040:	b510      	push	{r4, lr}
 8001042:	1c04      	adds	r4, r0, #0
	/* To read a register we use DBGITR to load an MCR instruction
	 * that sends the value via DCC DBGDTRTX using the CP14 interface.
	 */
	uint32_t instr = MCR | DBGDTRTXint | ((regno & 0xf) << 12);
 8001044:	070a      	lsls	r2, r1, #28
 8001046:	0c11      	lsrs	r1, r2, #16
 8001048:	4a05      	ldr	r2, [pc, #20]	; (8001060 <read_gpreg+0x20>)
	apb_write(t, DBGITR, instr);
 800104a:	6ec0      	ldr	r0, [r0, #108]	; 0x6c
static uint32_t read_gpreg(target *t, uint8_t regno)
{
	/* To read a register we use DBGITR to load an MCR instruction
	 * that sends the value via DCC DBGDTRTX using the CP14 interface.
	 */
	uint32_t instr = MCR | DBGDTRTXint | ((regno & 0xf) << 12);
 800104c:	430a      	orrs	r2, r1
	apb_write(t, DBGITR, instr);
 800104e:	2121      	movs	r1, #33	; 0x21
 8001050:	f7ff ff0c 	bl	8000e6c <apb_write.isra.0>
	/* Return value read from DCC channel */
	return apb_read(t, DBGDTRTX);
 8001054:	6ee0      	ldr	r0, [r4, #108]	; 0x6c
 8001056:	2123      	movs	r1, #35	; 0x23
 8001058:	f7ff ffda 	bl	8001010 <apb_read.isra.1>
}
 800105c:	bd10      	pop	{r4, pc}
 800105e:	46c0      	nop			; (mov r8, r8)
 8001060:	ee000e15 	.word	0xee000e15

08001064 <cortexa_slow_mem_write>:
		}
	}
}

static void cortexa_slow_mem_write(target *t, target_addr dest, const void *src, size_t len)
{
 8001064:	b5f7      	push	{r0, r1, r2, r4, r5, r6, r7, lr}
	struct cortexa_priv *priv = t->priv;
 8001066:	6ec4      	ldr	r4, [r0, #108]	; 0x6c
 8001068:	9400      	str	r4, [sp, #0]
	if (len == 0)
 800106a:	2b00      	cmp	r3, #0
 800106c:	d055      	beq.n	800111a <cortexa_slow_mem_write+0xb6>
 800106e:	1c15      	adds	r5, r2, #0
 8001070:	1c0a      	adds	r2, r1, #0
		return;

	if ((dest & 3) || (len & 3)) {
 8001072:	2103      	movs	r1, #3
 8001074:	1c1e      	adds	r6, r3, #0
 8001076:	1c04      	adds	r4, r0, #0
 8001078:	420a      	tst	r2, r1
 800107a:	d101      	bne.n	8001080 <cortexa_slow_mem_write+0x1c>
 800107c:	4019      	ands	r1, r3
 800107e:	d017      	beq.n	80010b0 <cortexa_slow_mem_write+0x4c>
static void cortexa_slow_mem_write_bytes(target *t, target_addr dest, const uint8_t *src, size_t len)
{
	struct cortexa_priv *priv = t->priv;

	/* Set r13 to dest address */
	write_gpreg(t, 13, dest);
 8001080:	210d      	movs	r1, #13
 8001082:	f7ff ff06 	bl	8000e92 <write_gpreg>
 8001086:	19ae      	adds	r6, r5, r6

	while (len--) {
 8001088:	42b5      	cmp	r5, r6
 800108a:	d046      	beq.n	800111a <cortexa_slow_mem_write+0xb6>
		write_gpreg(t, 0, *src++);
 800108c:	782a      	ldrb	r2, [r5, #0]
 800108e:	1c20      	adds	r0, r4, #0
 8001090:	2100      	movs	r1, #0
 8001092:	f7ff fefe 	bl	8000e92 <write_gpreg>
		apb_write(t, DBGITR, 0xe4cd0001); /* strb r0, [sp], #1 */
 8001096:	6ee0      	ldr	r0, [r4, #108]	; 0x6c
 8001098:	2121      	movs	r1, #33	; 0x21
 800109a:	4a20      	ldr	r2, [pc, #128]	; (800111c <cortexa_slow_mem_write+0xb8>)
 800109c:	f7ff fee6 	bl	8000e6c <apb_write.isra.0>
		if (apb_read(t, DBGDSCR) & DBGDSCR_SDABORT_L) {
 80010a0:	6ee0      	ldr	r0, [r4, #108]	; 0x6c
 80010a2:	2122      	movs	r1, #34	; 0x22
 80010a4:	f7ff ffb4 	bl	8001010 <apb_read.isra.1>
 80010a8:	3501      	adds	r5, #1
 80010aa:	0643      	lsls	r3, r0, #25
 80010ac:	d5ec      	bpl.n	8001088 <cortexa_slow_mem_write+0x24>
 80010ae:	e02b      	b.n	8001108 <cortexa_slow_mem_write+0xa4>
	if ((dest & 3) || (len & 3)) {
		cortexa_slow_mem_write_bytes(t, dest, src, len);
		return;
	}

	write_gpreg(t, 0, dest);
 80010b0:	f7ff feef 	bl	8000e92 <write_gpreg>
	const uint32_t *src32 = src;

	/* Switch to fast DCC mode */
	uint32_t dbgdscr = apb_read(t, DBGDSCR);
 80010b4:	2122      	movs	r1, #34	; 0x22
 80010b6:	6ee0      	ldr	r0, [r4, #108]	; 0x6c
 80010b8:	f7ff ffaa 	bl	8001010 <apb_read.isra.1>
	dbgdscr = (dbgdscr & ~DBGDSCR_EXTDCCMODE_MASK) | DBGDSCR_EXTDCCMODE_FAST;
 80010bc:	2280      	movs	r2, #128	; 0x80
 80010be:	4b18      	ldr	r3, [pc, #96]	; (8001120 <cortexa_slow_mem_write+0xbc>)
 80010c0:	0392      	lsls	r2, r2, #14
 80010c2:	4018      	ands	r0, r3
 80010c4:	4302      	orrs	r2, r0
 80010c6:	9001      	str	r0, [sp, #4]
	apb_write(t, DBGDSCR, dbgdscr);
 80010c8:	2122      	movs	r1, #34	; 0x22
 80010ca:	6ee0      	ldr	r0, [r4, #108]	; 0x6c
 80010cc:	f7ff fece 	bl	8000e6c <apb_write.isra.0>

	apb_write(t, DBGITR, 0xeca05e01); /* stc 14, cr5, [r0], #4 */
 80010d0:	6ee0      	ldr	r0, [r4, #108]	; 0x6c
 80010d2:	2121      	movs	r1, #33	; 0x21
 80010d4:	4a13      	ldr	r2, [pc, #76]	; (8001124 <cortexa_slow_mem_write+0xc0>)
 80010d6:	f7ff fec9 	bl	8000e6c <apb_write.isra.0>
 80010da:	1c2f      	adds	r7, r5, #0

	for (; len; len -= 4)
		apb_write(t, DBGDTRRX, *src32++);
 80010dc:	cf04      	ldmia	r7!, {r2}
 80010de:	6ee0      	ldr	r0, [r4, #108]	; 0x6c
 80010e0:	2120      	movs	r1, #32
 80010e2:	f7ff fec3 	bl	8000e6c <apb_write.isra.0>
 80010e6:	1bbb      	subs	r3, r7, r6
	dbgdscr = (dbgdscr & ~DBGDSCR_EXTDCCMODE_MASK) | DBGDSCR_EXTDCCMODE_FAST;
	apb_write(t, DBGDSCR, dbgdscr);

	apb_write(t, DBGITR, 0xeca05e01); /* stc 14, cr5, [r0], #4 */

	for (; len; len -= 4)
 80010e8:	42ab      	cmp	r3, r5
 80010ea:	d1f7      	bne.n	80010dc <cortexa_slow_mem_write+0x78>
		apb_write(t, DBGDTRRX, *src32++);

	/* Switch back to stalling DCC mode */
	dbgdscr = (dbgdscr & ~DBGDSCR_EXTDCCMODE_MASK) | DBGDSCR_EXTDCCMODE_STALL;
 80010ec:	2280      	movs	r2, #128	; 0x80
 80010ee:	9b01      	ldr	r3, [sp, #4]
 80010f0:	0352      	lsls	r2, r2, #13
 80010f2:	431a      	orrs	r2, r3
	apb_write(t, DBGDSCR, dbgdscr);
 80010f4:	6ee0      	ldr	r0, [r4, #108]	; 0x6c
 80010f6:	2122      	movs	r1, #34	; 0x22
 80010f8:	f7ff feb8 	bl	8000e6c <apb_write.isra.0>

	if (apb_read(t, DBGDSCR) & DBGDSCR_SDABORT_L) {
 80010fc:	6ee0      	ldr	r0, [r4, #108]	; 0x6c
 80010fe:	2122      	movs	r1, #34	; 0x22
 8001100:	f7ff ff86 	bl	8001010 <apb_read.isra.1>
 8001104:	0643      	lsls	r3, r0, #25
 8001106:	d508      	bpl.n	800111a <cortexa_slow_mem_write+0xb6>
		/* Memory access aborted, flag a fault */
		apb_write(t, DBGDRCR, DBGDRCR_CSE);
 8001108:	2204      	movs	r2, #4
 800110a:	6ee0      	ldr	r0, [r4, #108]	; 0x6c
 800110c:	2124      	movs	r1, #36	; 0x24
 800110e:	f7ff fead 	bl	8000e6c <apb_write.isra.0>
		priv->mmu_fault = true;
 8001112:	2201      	movs	r2, #1
 8001114:	9b00      	ldr	r3, [sp, #0]
 8001116:	33e8      	adds	r3, #232	; 0xe8
 8001118:	701a      	strb	r2, [r3, #0]
	}
}
 800111a:	bdf7      	pop	{r0, r1, r2, r4, r5, r6, r7, pc}
 800111c:	e4cd0001 	.word	0xe4cd0001
 8001120:	ffcfffff 	.word	0xffcfffff
 8001124:	eca05e01 	.word	0xeca05e01

08001128 <cortexa_halt_resume>:

	return reason;
}

void cortexa_halt_resume(target *t, bool step)
{
 8001128:	b5f7      	push	{r0, r1, r2, r4, r5, r6, r7, lr}
 800112a:	1c04      	adds	r4, r0, #0
 800112c:	1e0e      	subs	r6, r1, #0
	struct cortexa_priv *priv = t->priv;
 800112e:	6ec5      	ldr	r5, [r0, #108]	; 0x6c
	/* Set breakpoint comarator for single stepping if needed */
	if (step) {
 8001130:	d019      	beq.n	8001166 <cortexa_halt_resume+0x3e>
		uint32_t addr = priv->reg_cache.r[15];
		uint32_t bas = bp_bas(addr, (priv->reg_cache.cpsr & CPSR_THUMB) ? 2 : 4);
 8001132:	6d2b      	ldr	r3, [r5, #80]	; 0x50
void cortexa_halt_resume(target *t, bool step)
{
	struct cortexa_priv *priv = t->priv;
	/* Set breakpoint comarator for single stepping if needed */
	if (step) {
		uint32_t addr = priv->reg_cache.r[15];
 8001134:	6ce9      	ldr	r1, [r5, #76]	; 0x4c

/* Breakpoints */
static uint32_t bp_bas(uint32_t addr, uint8_t len)
{
	if (len == 4)
		return DBGBCR_BAS_ANY;
 8001136:	27f0      	movs	r7, #240	; 0xf0
{
	struct cortexa_priv *priv = t->priv;
	/* Set breakpoint comarator for single stepping if needed */
	if (step) {
		uint32_t addr = priv->reg_cache.r[15];
		uint32_t bas = bp_bas(addr, (priv->reg_cache.cpsr & CPSR_THUMB) ? 2 : 4);
 8001138:	069b      	lsls	r3, r3, #26
 800113a:	d503      	bpl.n	8001144 <cortexa_halt_resume+0x1c>
	if (len == 4)
		return DBGBCR_BAS_ANY;
	else if (addr & 2)
		return DBGBCR_BAS_HIGH_HW;
	else
		return DBGBCR_BAS_LOW_HW;
 800113c:	2760      	movs	r7, #96	; 0x60
/* Breakpoints */
static uint32_t bp_bas(uint32_t addr, uint8_t len)
{
	if (len == 4)
		return DBGBCR_BAS_ANY;
	else if (addr & 2)
 800113e:	078b      	lsls	r3, r1, #30
 8001140:	d501      	bpl.n	8001146 <cortexa_halt_resume+0x1e>
		return DBGBCR_BAS_HIGH_HW;
 8001142:	27c0      	movs	r7, #192	; 0xc0
 8001144:	007f      	lsls	r7, r7, #1
	struct cortexa_priv *priv = t->priv;
	/* Set breakpoint comarator for single stepping if needed */
	if (step) {
		uint32_t addr = priv->reg_cache.r[15];
		uint32_t bas = bp_bas(addr, (priv->reg_cache.cpsr & CPSR_THUMB) ? 2 : 4);
		DEBUG("step 0x%08"PRIx32"  %"PRIx32"\n", addr, bas);
 8001146:	1c3a      	adds	r2, r7, #0
 8001148:	482c      	ldr	r0, [pc, #176]	; (80011fc <cortexa_halt_resume+0xd4>)
 800114a:	f00b fc87 	bl	800ca5c <iprintf>
		/* Set match any breakpoint */
		apb_write(t, DBGBVR(0), priv->reg_cache.r[15] & ~3);
 800114e:	2303      	movs	r3, #3
 8001150:	6cea      	ldr	r2, [r5, #76]	; 0x4c
 8001152:	6ee0      	ldr	r0, [r4, #108]	; 0x6c
 8001154:	439a      	bics	r2, r3
 8001156:	2140      	movs	r1, #64	; 0x40
 8001158:	f7ff fe88 	bl	8000e6c <apb_write.isra.0>
		apb_write(t, DBGBCR(0), DBGBCR_INST_MISMATCH | bas |
 800115c:	4a28      	ldr	r2, [pc, #160]	; (8001200 <cortexa_halt_resume+0xd8>)
 800115e:	6ee0      	ldr	r0, [r4, #108]	; 0x6c
 8001160:	433a      	orrs	r2, r7
 8001162:	2150      	movs	r1, #80	; 0x50
 8001164:	e00a      	b.n	800117c <cortexa_halt_resume+0x54>
		                             DBGBCR_EN);
	} else {
		apb_write(t, DBGBVR(0), priv->bvr0);
 8001166:	1c2b      	adds	r3, r5, #0
 8001168:	33e4      	adds	r3, #228	; 0xe4
 800116a:	1c28      	adds	r0, r5, #0
 800116c:	2140      	movs	r1, #64	; 0x40
 800116e:	681a      	ldr	r2, [r3, #0]
 8001170:	f7ff fe7c 	bl	8000e6c <apb_write.isra.0>
		apb_write(t, DBGBCR(0), priv->bcr0);
 8001174:	2150      	movs	r1, #80	; 0x50
 8001176:	35e0      	adds	r5, #224	; 0xe0
 8001178:	6ee0      	ldr	r0, [r4, #108]	; 0x6c
 800117a:	682a      	ldr	r2, [r5, #0]
 800117c:	f7ff fe76 	bl	8000e6c <apb_write.isra.0>
	}

	/* Write back register cache */
	cortexa_regs_write_internal(t);
 8001180:	1c20      	adds	r0, r4, #0
 8001182:	f7ff fe99 	bl	8000eb8 <cortexa_regs_write_internal>

	apb_write(t, DBGITR, MCR | ICIALLU); /* invalidate cache */
 8001186:	6ee0      	ldr	r0, [r4, #108]	; 0x6c
 8001188:	2121      	movs	r1, #33	; 0x21
 800118a:	4a1e      	ldr	r2, [pc, #120]	; (8001204 <cortexa_halt_resume+0xdc>)
 800118c:	f7ff fe6e 	bl	8000e6c <apb_write.isra.0>

	platform_timeout to;
	platform_timeout_set(&to, 200);
 8001190:	a801      	add	r0, sp, #4
 8001192:	21c8      	movs	r1, #200	; 0xc8
 8001194:	f00a f97c 	bl	800b490 <platform_timeout_set>

	/* Wait for instruction to complete */
	uint32_t dbgdscr;
	do {
		dbgdscr = apb_read(t, DBGDSCR);
 8001198:	6ee0      	ldr	r0, [r4, #108]	; 0x6c
 800119a:	2122      	movs	r1, #34	; 0x22
 800119c:	f7ff ff38 	bl	8001010 <apb_read.isra.1>
 80011a0:	1c05      	adds	r5, r0, #0
	} while (!(dbgdscr & DBGDSCR_INSTRCOMPL) &&
	         !platform_timeout_is_expired(&to));
 80011a2:	01c3      	lsls	r3, r0, #7
 80011a4:	d505      	bpl.n	80011b2 <cortexa_halt_resume+0x8a>

	 /* Disable DBGITR.  Not sure why, but RRQ is ignored otherwise. */
	if (step)
 80011a6:	2e00      	cmp	r6, #0
 80011a8:	d009      	beq.n	80011be <cortexa_halt_resume+0x96>
		dbgdscr |= DBGDSCR_INTDIS;
 80011aa:	2280      	movs	r2, #128	; 0x80
 80011ac:	0112      	lsls	r2, r2, #4
 80011ae:	4315      	orrs	r5, r2
 80011b0:	e007      	b.n	80011c2 <cortexa_halt_resume+0x9a>
	/* Wait for instruction to complete */
	uint32_t dbgdscr;
	do {
		dbgdscr = apb_read(t, DBGDSCR);
	} while (!(dbgdscr & DBGDSCR_INSTRCOMPL) &&
	         !platform_timeout_is_expired(&to));
 80011b2:	a801      	add	r0, sp, #4
 80011b4:	f00a f974 	bl	800b4a0 <platform_timeout_is_expired>

	/* Wait for instruction to complete */
	uint32_t dbgdscr;
	do {
		dbgdscr = apb_read(t, DBGDSCR);
	} while (!(dbgdscr & DBGDSCR_INSTRCOMPL) &&
 80011b8:	2800      	cmp	r0, #0
 80011ba:	d0ed      	beq.n	8001198 <cortexa_halt_resume+0x70>
 80011bc:	e7f3      	b.n	80011a6 <cortexa_halt_resume+0x7e>

	 /* Disable DBGITR.  Not sure why, but RRQ is ignored otherwise. */
	if (step)
		dbgdscr |= DBGDSCR_INTDIS;
	else
		dbgdscr &= ~DBGDSCR_INTDIS;
 80011be:	4a12      	ldr	r2, [pc, #72]	; (8001208 <cortexa_halt_resume+0xe0>)
 80011c0:	4015      	ands	r5, r2
	dbgdscr &= ~DBGDSCR_ITREN;
 80011c2:	4a12      	ldr	r2, [pc, #72]	; (800120c <cortexa_halt_resume+0xe4>)
	apb_write(t, DBGDSCR, dbgdscr);
 80011c4:	6ee0      	ldr	r0, [r4, #108]	; 0x6c
	 /* Disable DBGITR.  Not sure why, but RRQ is ignored otherwise. */
	if (step)
		dbgdscr |= DBGDSCR_INTDIS;
	else
		dbgdscr &= ~DBGDSCR_INTDIS;
	dbgdscr &= ~DBGDSCR_ITREN;
 80011c6:	402a      	ands	r2, r5
	apb_write(t, DBGDSCR, dbgdscr);
 80011c8:	2122      	movs	r1, #34	; 0x22
 80011ca:	f7ff fe4f 	bl	8000e6c <apb_write.isra.0>

	do {
		apb_write(t, DBGDRCR, DBGDRCR_CSE | DBGDRCR_RRQ);
 80011ce:	2206      	movs	r2, #6
 80011d0:	6ee0      	ldr	r0, [r4, #108]	; 0x6c
 80011d2:	2124      	movs	r1, #36	; 0x24
 80011d4:	f7ff fe4a 	bl	8000e6c <apb_write.isra.0>
		dbgdscr = apb_read(t, DBGDSCR);
 80011d8:	2122      	movs	r1, #34	; 0x22
 80011da:	6ee0      	ldr	r0, [r4, #108]	; 0x6c
 80011dc:	f7ff ff18 	bl	8001010 <apb_read.isra.1>
 80011e0:	1c05      	adds	r5, r0, #0
		DEBUG("%s: DBGDSCR = 0x%08"PRIx32"\n", __func__, dbgdscr);
 80011e2:	490b      	ldr	r1, [pc, #44]	; (8001210 <cortexa_halt_resume+0xe8>)
 80011e4:	480b      	ldr	r0, [pc, #44]	; (8001214 <cortexa_halt_resume+0xec>)
 80011e6:	1c2a      	adds	r2, r5, #0
 80011e8:	f00b fc38 	bl	800ca5c <iprintf>
	} while (!(dbgdscr & DBGDSCR_RESTARTED) &&
	         !platform_timeout_is_expired(&to));
 80011ec:	07ab      	lsls	r3, r5, #30
 80011ee:	d404      	bmi.n	80011fa <cortexa_halt_resume+0xd2>
 80011f0:	a801      	add	r0, sp, #4
 80011f2:	f00a f955 	bl	800b4a0 <platform_timeout_is_expired>

	do {
		apb_write(t, DBGDRCR, DBGDRCR_CSE | DBGDRCR_RRQ);
		dbgdscr = apb_read(t, DBGDSCR);
		DEBUG("%s: DBGDSCR = 0x%08"PRIx32"\n", __func__, dbgdscr);
	} while (!(dbgdscr & DBGDSCR_RESTARTED) &&
 80011f6:	2800      	cmp	r0, #0
 80011f8:	d0e9      	beq.n	80011ce <cortexa_halt_resume+0xa6>
	         !platform_timeout_is_expired(&to));
}
 80011fa:	bdf7      	pop	{r0, r1, r2, r4, r5, r6, r7, pc}
 80011fc:	080105e0 	.word	0x080105e0
 8001200:	00400001 	.word	0x00400001
 8001204:	ee070f15 	.word	0xee070f15
 8001208:	fffff7ff 	.word	0xfffff7ff
 800120c:	ffffdfff 	.word	0xffffdfff
 8001210:	0800ff3b 	.word	0x0800ff3b
 8001214:	080105f3 	.word	0x080105f3

08001218 <cortexa_detach>:

	return true;
}

void cortexa_detach(target *t)
{
 8001218:	b573      	push	{r0, r1, r4, r5, r6, lr}
 800121a:	1c04      	adds	r4, r0, #0
	struct cortexa_priv *priv = t->priv;

	/* Clear any stale breakpoints */
	for(unsigned i = 0; i < priv->hw_breakpoint_max; i++) {
 800121c:	2500      	movs	r5, #0
	return true;
}

void cortexa_detach(target *t)
{
	struct cortexa_priv *priv = t->priv;
 800121e:	6ec6      	ldr	r6, [r0, #108]	; 0x6c

	/* Clear any stale breakpoints */
	for(unsigned i = 0; i < priv->hw_breakpoint_max; i++) {
 8001220:	1c33      	adds	r3, r6, #0
 8001222:	33d8      	adds	r3, #216	; 0xd8
 8001224:	681b      	ldr	r3, [r3, #0]
 8001226:	429d      	cmp	r5, r3
 8001228:	d208      	bcs.n	800123c <cortexa_detach+0x24>
 800122a:	1c29      	adds	r1, r5, #0
 800122c:	3150      	adds	r1, #80	; 0x50
		apb_write(t, DBGBCR(i), 0);
 800122e:	b289      	uxth	r1, r1
 8001230:	6ee0      	ldr	r0, [r4, #108]	; 0x6c
 8001232:	2200      	movs	r2, #0
 8001234:	f7ff fe1a 	bl	8000e6c <apb_write.isra.0>
void cortexa_detach(target *t)
{
	struct cortexa_priv *priv = t->priv;

	/* Clear any stale breakpoints */
	for(unsigned i = 0; i < priv->hw_breakpoint_max; i++) {
 8001238:	3501      	adds	r5, #1
 800123a:	e7f1      	b.n	8001220 <cortexa_detach+0x8>
		apb_write(t, DBGBCR(i), 0);
	}

	/* Restore any clobbered registers */
	cortexa_regs_write_internal(t);
 800123c:	1c20      	adds	r0, r4, #0
 800123e:	f7ff fe3b 	bl	8000eb8 <cortexa_regs_write_internal>
	/* Invalidate cache */
	apb_write(t, DBGITR, MCR | ICIALLU);
 8001242:	6ee0      	ldr	r0, [r4, #108]	; 0x6c
 8001244:	2121      	movs	r1, #33	; 0x21
 8001246:	4a10      	ldr	r2, [pc, #64]	; (8001288 <cortexa_detach+0x70>)
 8001248:	f7ff fe10 	bl	8000e6c <apb_write.isra.0>

	platform_timeout to;
	platform_timeout_set(&to, 200);
 800124c:	a801      	add	r0, sp, #4
 800124e:	21c8      	movs	r1, #200	; 0xc8
 8001250:	f00a f91e 	bl	800b490 <platform_timeout_set>

	/* Wait for instruction to complete */
	uint32_t dbgdscr;
	do {
		dbgdscr = apb_read(t, DBGDSCR);
 8001254:	6ee0      	ldr	r0, [r4, #108]	; 0x6c
 8001256:	2122      	movs	r1, #34	; 0x22
 8001258:	f7ff feda 	bl	8001010 <apb_read.isra.1>
 800125c:	1c05      	adds	r5, r0, #0
	} while (!(dbgdscr & DBGDSCR_INSTRCOMPL) &&
	         !platform_timeout_is_expired(&to));
 800125e:	01c3      	lsls	r3, r0, #7
 8001260:	d50b      	bpl.n	800127a <cortexa_detach+0x62>

	/* Disable halting debug mode */
	dbgdscr &= ~(DBGDSCR_HDBGEN | DBGDSCR_ITREN);
 8001262:	4a0a      	ldr	r2, [pc, #40]	; (800128c <cortexa_detach+0x74>)
	apb_write(t, DBGDSCR, dbgdscr);
 8001264:	6ee0      	ldr	r0, [r4, #108]	; 0x6c
		dbgdscr = apb_read(t, DBGDSCR);
	} while (!(dbgdscr & DBGDSCR_INSTRCOMPL) &&
	         !platform_timeout_is_expired(&to));

	/* Disable halting debug mode */
	dbgdscr &= ~(DBGDSCR_HDBGEN | DBGDSCR_ITREN);
 8001266:	402a      	ands	r2, r5
	apb_write(t, DBGDSCR, dbgdscr);
 8001268:	2122      	movs	r1, #34	; 0x22
 800126a:	f7ff fdff 	bl	8000e6c <apb_write.isra.0>
	/* Clear sticky error and resume */
	apb_write(t, DBGDRCR, DBGDRCR_CSE | DBGDRCR_RRQ);
 800126e:	6ee0      	ldr	r0, [r4, #108]	; 0x6c
 8001270:	2124      	movs	r1, #36	; 0x24
 8001272:	2206      	movs	r2, #6
 8001274:	f7ff fdfa 	bl	8000e6c <apb_write.isra.0>
}
 8001278:	bd73      	pop	{r0, r1, r4, r5, r6, pc}
	/* Wait for instruction to complete */
	uint32_t dbgdscr;
	do {
		dbgdscr = apb_read(t, DBGDSCR);
	} while (!(dbgdscr & DBGDSCR_INSTRCOMPL) &&
	         !platform_timeout_is_expired(&to));
 800127a:	a801      	add	r0, sp, #4
 800127c:	f00a f910 	bl	800b4a0 <platform_timeout_is_expired>

	/* Wait for instruction to complete */
	uint32_t dbgdscr;
	do {
		dbgdscr = apb_read(t, DBGDSCR);
	} while (!(dbgdscr & DBGDSCR_INSTRCOMPL) &&
 8001280:	2800      	cmp	r0, #0
 8001282:	d0e7      	beq.n	8001254 <cortexa_detach+0x3c>
 8001284:	e7ed      	b.n	8001262 <cortexa_detach+0x4a>
 8001286:	46c0      	nop			; (mov r8, r8)
 8001288:	ee070f15 	.word	0xee070f15
 800128c:	ffff9fff 	.word	0xffff9fff

08001290 <cortexa_halt_poll>:

static enum target_halt_reason cortexa_halt_poll(target *t, target_addr *watch)
{
	(void)watch; /* No watchpoint support yet */

	volatile uint32_t dbgdscr = 0;
 8001290:	2200      	movs	r2, #0
		tc_printf(t, "Timeout sending interrupt, is target in WFI?\n");
	}
}

static enum target_halt_reason cortexa_halt_poll(target *t, target_addr *watch)
{
 8001292:	b5f0      	push	{r4, r5, r6, r7, lr}
 8001294:	b09f      	sub	sp, #124	; 0x7c
	(void)watch; /* No watchpoint support yet */

	volatile uint32_t dbgdscr = 0;
 8001296:	9202      	str	r2, [sp, #8]
	volatile struct exception e;
	TRY_CATCH (e, EXCEPTION_ALL) {
 8001298:	9203      	str	r2, [sp, #12]
 800129a:	3a01      	subs	r2, #1
 800129c:	9205      	str	r2, [sp, #20]
 800129e:	4a49      	ldr	r2, [pc, #292]	; (80013c4 <cortexa_halt_poll+0x134>)
		tc_printf(t, "Timeout sending interrupt, is target in WFI?\n");
	}
}

static enum target_halt_reason cortexa_halt_poll(target *t, target_addr *watch)
{
 80012a0:	9000      	str	r0, [sp, #0]
	(void)watch; /* No watchpoint support yet */

	volatile uint32_t dbgdscr = 0;
	volatile struct exception e;
	TRY_CATCH (e, EXCEPTION_ALL) {
 80012a2:	6811      	ldr	r1, [r2, #0]
 80012a4:	ab03      	add	r3, sp, #12
 80012a6:	a806      	add	r0, sp, #24
 80012a8:	911d      	str	r1, [sp, #116]	; 0x74
 80012aa:	6013      	str	r3, [r2, #0]
 80012ac:	f00b fc82 	bl	800cbb4 <setjmp>
 80012b0:	2800      	cmp	r0, #0
 80012b2:	d006      	beq.n	80012c2 <cortexa_halt_poll+0x32>
		/* If this times out because the target is in WFI then
		 * the target is still running. */
		dbgdscr = apb_read(t, DBGDSCR);
	}
	switch (e.type) {
 80012b4:	9c03      	ldr	r4, [sp, #12]
 80012b6:	2c01      	cmp	r4, #1
 80012b8:	d011      	beq.n	80012de <cortexa_halt_poll+0x4e>
		/* Oh crap, there's no recovery from this... */
		target_list_free();
		return TARGET_HALT_ERROR;
	case EXCEPTION_TIMEOUT:
		/* Timeout isn't a problem, target could be in WFI */
		return TARGET_HALT_RUNNING;
 80012ba:	2000      	movs	r0, #0
	TRY_CATCH (e, EXCEPTION_ALL) {
		/* If this times out because the target is in WFI then
		 * the target is still running. */
		dbgdscr = apb_read(t, DBGDSCR);
	}
	switch (e.type) {
 80012bc:	2c02      	cmp	r4, #2
 80012be:	d07e      	beq.n	80013be <cortexa_halt_poll+0x12e>
 80012c0:	e011      	b.n	80012e6 <cortexa_halt_poll+0x56>
{
	(void)watch; /* No watchpoint support yet */

	volatile uint32_t dbgdscr = 0;
	volatile struct exception e;
	TRY_CATCH (e, EXCEPTION_ALL) {
 80012c2:	4d40      	ldr	r5, [pc, #256]	; (80013c4 <cortexa_halt_poll+0x134>)
 80012c4:	ab03      	add	r3, sp, #12
 80012c6:	682c      	ldr	r4, [r5, #0]
 80012c8:	429c      	cmp	r4, r3
 80012ca:	d1f3      	bne.n	80012b4 <cortexa_halt_poll+0x24>
		/* If this times out because the target is in WFI then
		 * the target is still running. */
		dbgdscr = apb_read(t, DBGDSCR);
 80012cc:	9b00      	ldr	r3, [sp, #0]
 80012ce:	2122      	movs	r1, #34	; 0x22
 80012d0:	6ed8      	ldr	r0, [r3, #108]	; 0x6c
 80012d2:	f7ff fe9d 	bl	8001010 <apb_read.isra.1>
 80012d6:	9002      	str	r0, [sp, #8]
{
	(void)watch; /* No watchpoint support yet */

	volatile uint32_t dbgdscr = 0;
	volatile struct exception e;
	TRY_CATCH (e, EXCEPTION_ALL) {
 80012d8:	6ea3      	ldr	r3, [r4, #104]	; 0x68
 80012da:	602b      	str	r3, [r5, #0]
 80012dc:	e7f1      	b.n	80012c2 <cortexa_halt_poll+0x32>
		dbgdscr = apb_read(t, DBGDSCR);
	}
	switch (e.type) {
	case EXCEPTION_ERROR:
		/* Oh crap, there's no recovery from this... */
		target_list_free();
 80012de:	f006 fe9b 	bl	8008018 <target_list_free>
		return TARGET_HALT_ERROR;
 80012e2:	1c20      	adds	r0, r4, #0
 80012e4:	e06b      	b.n	80013be <cortexa_halt_poll+0x12e>
	case EXCEPTION_TIMEOUT:
		/* Timeout isn't a problem, target could be in WFI */
		return TARGET_HALT_RUNNING;
	}

	if (!(dbgdscr & DBGDSCR_HALTED)) /* Not halted */
 80012e6:	2301      	movs	r3, #1
 80012e8:	9802      	ldr	r0, [sp, #8]
 80012ea:	4018      	ands	r0, r3
 80012ec:	d067      	beq.n	80013be <cortexa_halt_poll+0x12e>
		return TARGET_HALT_RUNNING;

	DEBUG("%s: DBGDSCR = 0x%08"PRIx32"\n", __func__, dbgdscr);
 80012ee:	4936      	ldr	r1, [pc, #216]	; (80013c8 <cortexa_halt_poll+0x138>)
 80012f0:	9a02      	ldr	r2, [sp, #8]
 80012f2:	3114      	adds	r1, #20
 80012f4:	4835      	ldr	r0, [pc, #212]	; (80013cc <cortexa_halt_poll+0x13c>)
 80012f6:	f00b fbb1 	bl	800ca5c <iprintf>
	/* Reenable DBGITR */
	dbgdscr |= DBGDSCR_ITREN;
 80012fa:	2280      	movs	r2, #128	; 0x80
 80012fc:	9b02      	ldr	r3, [sp, #8]
 80012fe:	0192      	lsls	r2, r2, #6
 8001300:	4313      	orrs	r3, r2
 8001302:	9302      	str	r3, [sp, #8]
	apb_write(t, DBGDSCR, dbgdscr);
 8001304:	9b00      	ldr	r3, [sp, #0]
 8001306:	9a02      	ldr	r2, [sp, #8]
 8001308:	6ed8      	ldr	r0, [r3, #108]	; 0x6c
 800130a:	2122      	movs	r1, #34	; 0x22
 800130c:	f7ff fdae 	bl	8000e6c <apb_write.isra.0>

	/* Find out why we halted */
	enum target_halt_reason reason;
	switch (dbgdscr & DBGDSCR_MOE_MASK) {
 8001310:	233c      	movs	r3, #60	; 0x3c
 8001312:	9a02      	ldr	r2, [sp, #8]
	case DBGDSCR_MOE_HALT_REQ:
		reason = TARGET_HALT_REQUEST;
 8001314:	2702      	movs	r7, #2
	dbgdscr |= DBGDSCR_ITREN;
	apb_write(t, DBGDSCR, dbgdscr);

	/* Find out why we halted */
	enum target_halt_reason reason;
	switch (dbgdscr & DBGDSCR_MOE_MASK) {
 8001316:	421a      	tst	r2, r3
 8001318:	d000      	beq.n	800131c <cortexa_halt_poll+0x8c>
	case DBGDSCR_MOE_HALT_REQ:
		reason = TARGET_HALT_REQUEST;
		break;
	default:
		reason = TARGET_HALT_BREAKPOINT;
 800131a:	19ff      	adds	r7, r7, r7

static void cortexa_regs_read_internal(target *t)
{
	struct cortexa_priv *priv = (struct cortexa_priv *)t->priv;
	/* Read general purpose registers */
	for (int i = 0; i < 15; i++) {
 800131c:	2500      	movs	r5, #0
	memcpy(&priv->reg_cache, data, t->regs_size);
}

static void cortexa_regs_read_internal(target *t)
{
	struct cortexa_priv *priv = (struct cortexa_priv *)t->priv;
 800131e:	9b00      	ldr	r3, [sp, #0]
 8001320:	6edc      	ldr	r4, [r3, #108]	; 0x6c
	/* Read general purpose registers */
	for (int i = 0; i < 15; i++) {
		priv->reg_cache.r[i] = read_gpreg(t, i);
 8001322:	b2e9      	uxtb	r1, r5
 8001324:	9800      	ldr	r0, [sp, #0]
 8001326:	f7ff fe8b 	bl	8001040 <read_gpreg>
 800132a:	00ab      	lsls	r3, r5, #2
 800132c:	18e3      	adds	r3, r4, r3

static void cortexa_regs_read_internal(target *t)
{
	struct cortexa_priv *priv = (struct cortexa_priv *)t->priv;
	/* Read general purpose registers */
	for (int i = 0; i < 15; i++) {
 800132e:	3501      	adds	r5, #1
		priv->reg_cache.r[i] = read_gpreg(t, i);
 8001330:	6118      	str	r0, [r3, #16]

static void cortexa_regs_read_internal(target *t)
{
	struct cortexa_priv *priv = (struct cortexa_priv *)t->priv;
	/* Read general purpose registers */
	for (int i = 0; i < 15; i++) {
 8001332:	2d0f      	cmp	r5, #15
 8001334:	d1f5      	bne.n	8001322 <cortexa_halt_poll+0x92>
		priv->reg_cache.r[i] = read_gpreg(t, i);
	}
	/* Read PC, via r0.  MCR is UNPREDICTABLE for Rt = r15. */
	apb_write(t, DBGITR, 0xe1a0000f); /* mov r0, pc */
 8001336:	9b00      	ldr	r3, [sp, #0]
 8001338:	4a25      	ldr	r2, [pc, #148]	; (80013d0 <cortexa_halt_poll+0x140>)
 800133a:	6ed8      	ldr	r0, [r3, #108]	; 0x6c
 800133c:	2121      	movs	r1, #33	; 0x21
 800133e:	f7ff fd95 	bl	8000e6c <apb_write.isra.0>
	priv->reg_cache.r[15] = read_gpreg(t, 0);
 8001342:	2100      	movs	r1, #0
 8001344:	9800      	ldr	r0, [sp, #0]
 8001346:	f7ff fe7b 	bl	8001040 <read_gpreg>
	/* Read CPSR */
	apb_write(t, DBGITR, 0xE10F0000); /* mrs r0, CPSR */
 800134a:	9b00      	ldr	r3, [sp, #0]
 800134c:	4a21      	ldr	r2, [pc, #132]	; (80013d4 <cortexa_halt_poll+0x144>)
	for (int i = 0; i < 15; i++) {
		priv->reg_cache.r[i] = read_gpreg(t, i);
	}
	/* Read PC, via r0.  MCR is UNPREDICTABLE for Rt = r15. */
	apb_write(t, DBGITR, 0xe1a0000f); /* mov r0, pc */
	priv->reg_cache.r[15] = read_gpreg(t, 0);
 800134e:	64e0      	str	r0, [r4, #76]	; 0x4c
	/* Read CPSR */
	apb_write(t, DBGITR, 0xE10F0000); /* mrs r0, CPSR */
 8001350:	2121      	movs	r1, #33	; 0x21
 8001352:	6ed8      	ldr	r0, [r3, #108]	; 0x6c
 8001354:	f7ff fd8a 	bl	8000e6c <apb_write.isra.0>
	priv->reg_cache.cpsr = read_gpreg(t, 0);
 8001358:	2100      	movs	r1, #0
 800135a:	9800      	ldr	r0, [sp, #0]
 800135c:	f7ff fe70 	bl	8001040 <read_gpreg>
	/* Read FPSCR */
	apb_write(t, DBGITR, 0xeef10a10); /* vmrs r0, fpscr */
 8001360:	9b00      	ldr	r3, [sp, #0]
	/* Read PC, via r0.  MCR is UNPREDICTABLE for Rt = r15. */
	apb_write(t, DBGITR, 0xe1a0000f); /* mov r0, pc */
	priv->reg_cache.r[15] = read_gpreg(t, 0);
	/* Read CPSR */
	apb_write(t, DBGITR, 0xE10F0000); /* mrs r0, CPSR */
	priv->reg_cache.cpsr = read_gpreg(t, 0);
 8001362:	6520      	str	r0, [r4, #80]	; 0x50
	/* Read FPSCR */
	apb_write(t, DBGITR, 0xeef10a10); /* vmrs r0, fpscr */
 8001364:	2121      	movs	r1, #33	; 0x21
 8001366:	6ed8      	ldr	r0, [r3, #108]	; 0x6c
 8001368:	4a1b      	ldr	r2, [pc, #108]	; (80013d8 <cortexa_halt_poll+0x148>)
 800136a:	f7ff fd7f 	bl	8000e6c <apb_write.isra.0>
	priv->reg_cache.fpscr = read_gpreg(t, 0);
 800136e:	9800      	ldr	r0, [sp, #0]
 8001370:	2100      	movs	r1, #0
 8001372:	f7ff fe65 	bl	8001040 <read_gpreg>
 8001376:	1c26      	adds	r6, r4, #0
	/* Read out VFP registers */
	for (int i = 0; i < 16; i++) {
 8001378:	2500      	movs	r5, #0
	/* Read CPSR */
	apb_write(t, DBGITR, 0xE10F0000); /* mrs r0, CPSR */
	priv->reg_cache.cpsr = read_gpreg(t, 0);
	/* Read FPSCR */
	apb_write(t, DBGITR, 0xeef10a10); /* vmrs r0, fpscr */
	priv->reg_cache.fpscr = read_gpreg(t, 0);
 800137a:	6560      	str	r0, [r4, #84]	; 0x54
 800137c:	3658      	adds	r6, #88	; 0x58
	/* Read out VFP registers */
	for (int i = 0; i < 16; i++) {
		/* Read D[i] to R0/R1 */
		apb_write(t, DBGITR, 0xEC510B10 | i); /* vmov r0, r1, d0 */
 800137e:	9b00      	ldr	r3, [sp, #0]
 8001380:	4a16      	ldr	r2, [pc, #88]	; (80013dc <cortexa_halt_poll+0x14c>)
 8001382:	6ed8      	ldr	r0, [r3, #108]	; 0x6c
 8001384:	432a      	orrs	r2, r5
 8001386:	2121      	movs	r1, #33	; 0x21
 8001388:	f7ff fd70 	bl	8000e6c <apb_write.isra.0>
		priv->reg_cache.d[i] = ((uint64_t)read_gpreg(t, 1) << 32) | read_gpreg(t, 0);
 800138c:	2101      	movs	r1, #1
 800138e:	9800      	ldr	r0, [sp, #0]
 8001390:	f7ff fe56 	bl	8001040 <read_gpreg>
 8001394:	2100      	movs	r1, #0
 8001396:	9001      	str	r0, [sp, #4]
 8001398:	9800      	ldr	r0, [sp, #0]
 800139a:	f7ff fe51 	bl	8001040 <read_gpreg>
 800139e:	9b01      	ldr	r3, [sp, #4]
	priv->reg_cache.cpsr = read_gpreg(t, 0);
	/* Read FPSCR */
	apb_write(t, DBGITR, 0xeef10a10); /* vmrs r0, fpscr */
	priv->reg_cache.fpscr = read_gpreg(t, 0);
	/* Read out VFP registers */
	for (int i = 0; i < 16; i++) {
 80013a0:	3501      	adds	r5, #1
		/* Read D[i] to R0/R1 */
		apb_write(t, DBGITR, 0xEC510B10 | i); /* vmov r0, r1, d0 */
		priv->reg_cache.d[i] = ((uint64_t)read_gpreg(t, 1) << 32) | read_gpreg(t, 0);
 80013a2:	6030      	str	r0, [r6, #0]
 80013a4:	6073      	str	r3, [r6, #4]
 80013a6:	3608      	adds	r6, #8
	priv->reg_cache.cpsr = read_gpreg(t, 0);
	/* Read FPSCR */
	apb_write(t, DBGITR, 0xeef10a10); /* vmrs r0, fpscr */
	priv->reg_cache.fpscr = read_gpreg(t, 0);
	/* Read out VFP registers */
	for (int i = 0; i < 16; i++) {
 80013a8:	2d10      	cmp	r5, #16
 80013aa:	d1e8      	bne.n	800137e <cortexa_halt_poll+0xee>
		/* Read D[i] to R0/R1 */
		apb_write(t, DBGITR, 0xEC510B10 | i); /* vmov r0, r1, d0 */
		priv->reg_cache.d[i] = ((uint64_t)read_gpreg(t, 1) << 32) | read_gpreg(t, 0);
	}
	priv->reg_cache.r[15] -= (priv->reg_cache.cpsr & CPSR_THUMB) ? 4 : 8;
 80013ac:	6d21      	ldr	r1, [r4, #80]	; 0x50
 80013ae:	6ce3      	ldr	r3, [r4, #76]	; 0x4c
 80013b0:	2204      	movs	r2, #4
 80013b2:	0689      	lsls	r1, r1, #26
 80013b4:	d400      	bmi.n	80013b8 <cortexa_halt_poll+0x128>
 80013b6:	1892      	adds	r2, r2, r2
		reason = TARGET_HALT_BREAKPOINT;
	}

	cortexa_regs_read_internal(t);

	return reason;
 80013b8:	1c38      	adds	r0, r7, #0
	for (int i = 0; i < 16; i++) {
		/* Read D[i] to R0/R1 */
		apb_write(t, DBGITR, 0xEC510B10 | i); /* vmov r0, r1, d0 */
		priv->reg_cache.d[i] = ((uint64_t)read_gpreg(t, 1) << 32) | read_gpreg(t, 0);
	}
	priv->reg_cache.r[15] -= (priv->reg_cache.cpsr & CPSR_THUMB) ? 4 : 8;
 80013ba:	1a9b      	subs	r3, r3, r2
 80013bc:	64e3      	str	r3, [r4, #76]	; 0x4c
	}

	cortexa_regs_read_internal(t);

	return reason;
}
 80013be:	b01f      	add	sp, #124	; 0x7c
 80013c0:	bdf0      	pop	{r4, r5, r6, r7, pc}
 80013c2:	46c0      	nop			; (mov r8, r8)
 80013c4:	20001dc4 	.word	0x20001dc4
 80013c8:	0800ff3b 	.word	0x0800ff3b
 80013cc:	080105f3 	.word	0x080105f3
 80013d0:	e1a0000f 	.word	0xe1a0000f
 80013d4:	e10f0000 	.word	0xe10f0000
 80013d8:	eef10a10 	.word	0xeef10a10
 80013dc:	ec510b10 	.word	0xec510b10

080013e0 <cortexa_attach>:

	return true;
}

bool cortexa_attach(target *t)
{
 80013e0:	b5f8      	push	{r3, r4, r5, r6, r7, lr}
 80013e2:	1c04      	adds	r4, r0, #0
	struct cortexa_priv *priv = t->priv;
 80013e4:	6ec6      	ldr	r6, [r0, #108]	; 0x6c
	int tries;

	/* Clear any pending fault condition */
	target_check_error(t);
 80013e6:	f007 f817 	bl	8008418 <target_check_error>

	/* Enable halting debug mode */
	uint32_t dbgdscr = apb_read(t, DBGDSCR);
 80013ea:	2122      	movs	r1, #34	; 0x22
 80013ec:	6ee0      	ldr	r0, [r4, #108]	; 0x6c
 80013ee:	f7ff fe0f 	bl	8001010 <apb_read.isra.1>
	dbgdscr |= DBGDSCR_HDBGEN | DBGDSCR_ITREN;
	dbgdscr = (dbgdscr & ~DBGDSCR_EXTDCCMODE_MASK) | DBGDSCR_EXTDCCMODE_STALL;
 80013f2:	2583      	movs	r5, #131	; 0x83
 80013f4:	4b1d      	ldr	r3, [pc, #116]	; (800146c <cortexa_attach+0x8c>)
 80013f6:	036d      	lsls	r5, r5, #13
 80013f8:	4018      	ands	r0, r3
 80013fa:	4305      	orrs	r5, r0
	apb_write(t, DBGDSCR, dbgdscr);
 80013fc:	1c2a      	adds	r2, r5, #0
 80013fe:	6ee0      	ldr	r0, [r4, #108]	; 0x6c
 8001400:	2122      	movs	r1, #34	; 0x22
 8001402:	f7ff fd33 	bl	8000e6c <apb_write.isra.0>
	DEBUG("DBGDSCR = 0x%08"PRIx32"\n", dbgdscr);
 8001406:	1c29      	adds	r1, r5, #0
 8001408:	4819      	ldr	r0, [pc, #100]	; (8001470 <cortexa_attach+0x90>)
 800140a:	f00b fb27 	bl	800ca5c <iprintf>

	target_halt_request(t);
 800140e:	1c20      	adds	r0, r4, #0
 8001410:	f007 f824 	bl	800845c <target_halt_request>
	tries = 10;
	while(!platform_srst_get_val() && !target_halt_poll(t, NULL) && --tries)
 8001414:	270a      	movs	r7, #10
 8001416:	f004 f94c 	bl	80056b2 <platform_srst_get_val>
 800141a:	1e05      	subs	r5, r0, #0
 800141c:	d10c      	bne.n	8001438 <cortexa_attach+0x58>
 800141e:	1c20      	adds	r0, r4, #0
 8001420:	1c29      	adds	r1, r5, #0
 8001422:	f007 f81f 	bl	8008464 <target_halt_poll>
 8001426:	2800      	cmp	r0, #0
 8001428:	d106      	bne.n	8001438 <cortexa_attach+0x58>
 800142a:	3f01      	subs	r7, #1
 800142c:	2f00      	cmp	r7, #0
 800142e:	d01b      	beq.n	8001468 <cortexa_attach+0x88>
		platform_delay(200);
 8001430:	20c8      	movs	r0, #200	; 0xc8
 8001432:	f00a f859 	bl	800b4e8 <platform_delay>
 8001436:	e7ee      	b.n	8001416 <cortexa_attach+0x36>
	apb_write(t, DBGDSCR, dbgdscr);
	DEBUG("DBGDSCR = 0x%08"PRIx32"\n", dbgdscr);

	target_halt_request(t);
	tries = 10;
	while(!platform_srst_get_val() && !target_halt_poll(t, NULL) && --tries)
 8001438:	2500      	movs	r5, #0
		platform_delay(200);
	if(!tries)
		return false;

	/* Clear any stale breakpoints */
	for(unsigned i = 0; i < priv->hw_breakpoint_max; i++) {
 800143a:	1c33      	adds	r3, r6, #0
 800143c:	33d8      	adds	r3, #216	; 0xd8
 800143e:	681b      	ldr	r3, [r3, #0]
 8001440:	429d      	cmp	r5, r3
 8001442:	d208      	bcs.n	8001456 <cortexa_attach+0x76>
 8001444:	1c29      	adds	r1, r5, #0
 8001446:	3150      	adds	r1, #80	; 0x50
		apb_write(t, DBGBCR(i), 0);
 8001448:	b289      	uxth	r1, r1
 800144a:	6ee0      	ldr	r0, [r4, #108]	; 0x6c
 800144c:	2200      	movs	r2, #0
 800144e:	f7ff fd0d 	bl	8000e6c <apb_write.isra.0>
		platform_delay(200);
	if(!tries)
		return false;

	/* Clear any stale breakpoints */
	for(unsigned i = 0; i < priv->hw_breakpoint_max; i++) {
 8001452:	3501      	adds	r5, #1
 8001454:	e7f1      	b.n	800143a <cortexa_attach+0x5a>
		apb_write(t, DBGBCR(i), 0);
	}
	priv->hw_breakpoint_mask = 0;
 8001456:	1c33      	adds	r3, r6, #0
 8001458:	2000      	movs	r0, #0
 800145a:	33dc      	adds	r3, #220	; 0xdc
	priv->bcr0 = 0;
 800145c:	36e0      	adds	r6, #224	; 0xe0

	/* Clear any stale breakpoints */
	for(unsigned i = 0; i < priv->hw_breakpoint_max; i++) {
		apb_write(t, DBGBCR(i), 0);
	}
	priv->hw_breakpoint_mask = 0;
 800145e:	8018      	strh	r0, [r3, #0]
	priv->bcr0 = 0;
 8001460:	6030      	str	r0, [r6, #0]

	platform_srst_set_val(false);
 8001462:	f004 f917 	bl	8005694 <platform_srst_set_val>

	return true;
 8001466:	2501      	movs	r5, #1
}
 8001468:	1c28      	adds	r0, r5, #0
 800146a:	bdf8      	pop	{r3, r4, r5, r6, r7, pc}
 800146c:	ffcfffff 	.word	0xffcfffff
 8001470:	080105f7 	.word	0x080105f7

08001474 <cortexa_reset>:
		write_gpreg(t, i, priv->reg_cache.r[i]);
	}
}

static void cortexa_reset(target *t)
{
 8001474:	b530      	push	{r4, r5, lr}
	 * See Zynq-7000 TRM, Xilinx doc UG585
	 */
#define ZYNQ_SLCR_UNLOCK       0xf8000008
#define ZYNQ_SLCR_UNLOCK_KEY   0xdf0d
#define ZYNQ_SLCR_PSS_RST_CTRL 0xf8000200
	target_mem_write32(t, ZYNQ_SLCR_UNLOCK, ZYNQ_SLCR_UNLOCK_KEY);
 8001476:	4924      	ldr	r1, [pc, #144]	; (8001508 <cortexa_reset+0x94>)
		write_gpreg(t, i, priv->reg_cache.r[i]);
	}
}

static void cortexa_reset(target *t)
{
 8001478:	b09f      	sub	sp, #124	; 0x7c
	 * See Zynq-7000 TRM, Xilinx doc UG585
	 */
#define ZYNQ_SLCR_UNLOCK       0xf8000008
#define ZYNQ_SLCR_UNLOCK_KEY   0xdf0d
#define ZYNQ_SLCR_PSS_RST_CTRL 0xf8000200
	target_mem_write32(t, ZYNQ_SLCR_UNLOCK, ZYNQ_SLCR_UNLOCK_KEY);
 800147a:	4a24      	ldr	r2, [pc, #144]	; (800150c <cortexa_reset+0x98>)
		write_gpreg(t, i, priv->reg_cache.r[i]);
	}
}

static void cortexa_reset(target *t)
{
 800147c:	9001      	str	r0, [sp, #4]
	 * See Zynq-7000 TRM, Xilinx doc UG585
	 */
#define ZYNQ_SLCR_UNLOCK       0xf8000008
#define ZYNQ_SLCR_UNLOCK_KEY   0xdf0d
#define ZYNQ_SLCR_PSS_RST_CTRL 0xf8000200
	target_mem_write32(t, ZYNQ_SLCR_UNLOCK, ZYNQ_SLCR_UNLOCK_KEY);
 800147e:	f007 f85d 	bl	800853c <target_mem_write32>
	target_mem_write32(t, ZYNQ_SLCR_PSS_RST_CTRL, 1);
 8001482:	4923      	ldr	r1, [pc, #140]	; (8001510 <cortexa_reset+0x9c>)
 8001484:	2201      	movs	r2, #1
 8001486:	9801      	ldr	r0, [sp, #4]
 8001488:	f007 f858 	bl	800853c <target_mem_write32>

	/* Try hard reset too */
	platform_srst_set_val(true);
 800148c:	2001      	movs	r0, #1
 800148e:	f004 f901 	bl	8005694 <platform_srst_set_val>
	platform_srst_set_val(false);
 8001492:	2000      	movs	r0, #0
 8001494:	f004 f8fe 	bl	8005694 <platform_srst_set_val>

	/* Spin until Xilinx reconnects us */
	platform_timeout timeout;
	platform_timeout_set(&timeout, 1000);
 8001498:	21fa      	movs	r1, #250	; 0xfa
 800149a:	a802      	add	r0, sp, #8
 800149c:	0089      	lsls	r1, r1, #2
 800149e:	f009 fff7 	bl	800b490 <platform_timeout_set>
	volatile struct exception e;
	do {
		TRY_CATCH (e, EXCEPTION_ALL) {
 80014a2:	2200      	movs	r2, #0
 80014a4:	9203      	str	r2, [sp, #12]
 80014a6:	3a01      	subs	r2, #1
 80014a8:	9205      	str	r2, [sp, #20]
 80014aa:	4a1a      	ldr	r2, [pc, #104]	; (8001514 <cortexa_reset+0xa0>)
 80014ac:	ab03      	add	r3, sp, #12
 80014ae:	6811      	ldr	r1, [r2, #0]
 80014b0:	a806      	add	r0, sp, #24
 80014b2:	911d      	str	r1, [sp, #116]	; 0x74
 80014b4:	6013      	str	r3, [r2, #0]
 80014b6:	f00b fb7d 	bl	800cbb4 <setjmp>
 80014ba:	2800      	cmp	r0, #0
 80014bc:	d005      	beq.n	80014ca <cortexa_reset+0x56>
			apb_read(t, DBGDIDR);
		}
	} while (!platform_timeout_is_expired(&timeout) && e.type == EXCEPTION_ERROR);
 80014be:	a802      	add	r0, sp, #8
 80014c0:	f009 ffee 	bl	800b4a0 <platform_timeout_is_expired>
 80014c4:	2800      	cmp	r0, #0
 80014c6:	d110      	bne.n	80014ea <cortexa_reset+0x76>
 80014c8:	e00c      	b.n	80014e4 <cortexa_reset+0x70>
	/* Spin until Xilinx reconnects us */
	platform_timeout timeout;
	platform_timeout_set(&timeout, 1000);
	volatile struct exception e;
	do {
		TRY_CATCH (e, EXCEPTION_ALL) {
 80014ca:	4d12      	ldr	r5, [pc, #72]	; (8001514 <cortexa_reset+0xa0>)
 80014cc:	ab03      	add	r3, sp, #12
 80014ce:	682c      	ldr	r4, [r5, #0]
 80014d0:	429c      	cmp	r4, r3
 80014d2:	d1f4      	bne.n	80014be <cortexa_reset+0x4a>
			apb_read(t, DBGDIDR);
 80014d4:	9b01      	ldr	r3, [sp, #4]
 80014d6:	2100      	movs	r1, #0
 80014d8:	6ed8      	ldr	r0, [r3, #108]	; 0x6c
 80014da:	f7ff fd99 	bl	8001010 <apb_read.isra.1>
	/* Spin until Xilinx reconnects us */
	platform_timeout timeout;
	platform_timeout_set(&timeout, 1000);
	volatile struct exception e;
	do {
		TRY_CATCH (e, EXCEPTION_ALL) {
 80014de:	6ea3      	ldr	r3, [r4, #104]	; 0x68
 80014e0:	602b      	str	r3, [r5, #0]
 80014e2:	e7f2      	b.n	80014ca <cortexa_reset+0x56>
			apb_read(t, DBGDIDR);
		}
	} while (!platform_timeout_is_expired(&timeout) && e.type == EXCEPTION_ERROR);
 80014e4:	9b03      	ldr	r3, [sp, #12]
 80014e6:	2b01      	cmp	r3, #1
 80014e8:	d0db      	beq.n	80014a2 <cortexa_reset+0x2e>
	if (e.type == EXCEPTION_ERROR)
 80014ea:	9b03      	ldr	r3, [sp, #12]
 80014ec:	2b01      	cmp	r3, #1
 80014ee:	d103      	bne.n	80014f8 <cortexa_reset+0x84>
		raise_exception(e.type, e.msg);
 80014f0:	9803      	ldr	r0, [sp, #12]
 80014f2:	9904      	ldr	r1, [sp, #16]
 80014f4:	f001 f9f0 	bl	80028d8 <raise_exception>

	platform_delay(100);
 80014f8:	2064      	movs	r0, #100	; 0x64
 80014fa:	f009 fff5 	bl	800b4e8 <platform_delay>

	cortexa_attach(t);
 80014fe:	9801      	ldr	r0, [sp, #4]
 8001500:	f7ff ff6e 	bl	80013e0 <cortexa_attach>
}
 8001504:	b01f      	add	sp, #124	; 0x7c
 8001506:	bd30      	pop	{r4, r5, pc}
 8001508:	f8000008 	.word	0xf8000008
 800150c:	0000df0d 	.word	0x0000df0d
 8001510:	f8000200 	.word	0xf8000200
 8001514:	20001dc4 	.word	0x20001dc4

08001518 <cortexa_slow_mem_read>:
	ADIv5_AP_t *ahb = ((struct cortexa_priv*)t->priv)->ahb;
	adiv5_mem_read(ahb, dest, va_to_pa(t, src), len);
}

static void cortexa_slow_mem_read(target *t, void *dest, target_addr src, size_t len)
{
 8001518:	b5f0      	push	{r4, r5, r6, r7, lr}
 800151a:	b087      	sub	sp, #28
 800151c:	af00      	add	r7, sp, #0
 800151e:	60bb      	str	r3, [r7, #8]
	struct cortexa_priv *priv = t->priv;
 8001520:	6ec3      	ldr	r3, [r0, #108]	; 0x6c
	ADIv5_AP_t *ahb = ((struct cortexa_priv*)t->priv)->ahb;
	adiv5_mem_read(ahb, dest, va_to_pa(t, src), len);
}

static void cortexa_slow_mem_read(target *t, void *dest, target_addr src, size_t len)
{
 8001522:	6039      	str	r1, [r7, #0]
	struct cortexa_priv *priv = t->priv;
 8001524:	607b      	str	r3, [r7, #4]
	unsigned words = (len + (src & 3) + 3) / 4;
 8001526:	2103      	movs	r1, #3
 8001528:	1c13      	adds	r3, r2, #0
 800152a:	400b      	ands	r3, r1
 800152c:	613b      	str	r3, [r7, #16]
 800152e:	68bb      	ldr	r3, [r7, #8]
	ADIv5_AP_t *ahb = ((struct cortexa_priv*)t->priv)->ahb;
	adiv5_mem_read(ahb, dest, va_to_pa(t, src), len);
}

static void cortexa_slow_mem_read(target *t, void *dest, target_addr src, size_t len)
{
 8001530:	1c04      	adds	r4, r0, #0
 8001532:	185d      	adds	r5, r3, r1
	struct cortexa_priv *priv = t->priv;
	unsigned words = (len + (src & 3) + 3) / 4;
 8001534:	693b      	ldr	r3, [r7, #16]
	uint32_t dest32[words];
 8001536:	4668      	mov	r0, sp
}

static void cortexa_slow_mem_read(target *t, void *dest, target_addr src, size_t len)
{
	struct cortexa_priv *priv = t->priv;
	unsigned words = (len + (src & 3) + 3) / 4;
 8001538:	18ed      	adds	r5, r5, r3
 800153a:	08ad      	lsrs	r5, r5, #2
	uint32_t dest32[words];
 800153c:	00ad      	lsls	r5, r5, #2
 800153e:	1c2b      	adds	r3, r5, #0
 8001540:	330a      	adds	r3, #10
 8001542:	40cb      	lsrs	r3, r1
 8001544:	408b      	lsls	r3, r1
 8001546:	1ac3      	subs	r3, r0, r3
 8001548:	469d      	mov	sp, r3

	/* Set r0 to aligned src address */
	write_gpreg(t, 0, src & ~3);
 800154a:	438a      	bics	r2, r1
 800154c:	1c20      	adds	r0, r4, #0
 800154e:	2100      	movs	r1, #0

static void cortexa_slow_mem_read(target *t, void *dest, target_addr src, size_t len)
{
	struct cortexa_priv *priv = t->priv;
	unsigned words = (len + (src & 3) + 3) / 4;
	uint32_t dest32[words];
 8001550:	617b      	str	r3, [r7, #20]

	/* Set r0 to aligned src address */
	write_gpreg(t, 0, src & ~3);
 8001552:	f7ff fc9e 	bl	8000e92 <write_gpreg>

	/* Switch to fast DCC mode */
	uint32_t dbgdscr = apb_read(t, DBGDSCR);
 8001556:	2122      	movs	r1, #34	; 0x22
 8001558:	6ee0      	ldr	r0, [r4, #108]	; 0x6c
 800155a:	f7ff fd59 	bl	8001010 <apb_read.isra.1>
	dbgdscr = (dbgdscr & ~DBGDSCR_EXTDCCMODE_MASK) | DBGDSCR_EXTDCCMODE_FAST;
 800155e:	2280      	movs	r2, #128	; 0x80
 8001560:	4b21      	ldr	r3, [pc, #132]	; (80015e8 <cortexa_slow_mem_read+0xd0>)
 8001562:	0392      	lsls	r2, r2, #14
 8001564:	4018      	ands	r0, r3
 8001566:	4302      	orrs	r2, r0
 8001568:	60f8      	str	r0, [r7, #12]
	apb_write(t, DBGDSCR, dbgdscr);
 800156a:	2122      	movs	r1, #34	; 0x22
 800156c:	6ee0      	ldr	r0, [r4, #108]	; 0x6c
 800156e:	f7ff fc7d 	bl	8000e6c <apb_write.isra.0>

	apb_write(t, DBGITR, 0xecb05e01); /* ldc 14, cr5, [r0], #4 */
 8001572:	6ee0      	ldr	r0, [r4, #108]	; 0x6c
 8001574:	2121      	movs	r1, #33	; 0x21
 8001576:	4a1d      	ldr	r2, [pc, #116]	; (80015ec <cortexa_slow_mem_read+0xd4>)
 8001578:	f7ff fc78 	bl	8000e6c <apb_write.isra.0>
	/* According to the ARMv7-A ARM, in fast mode, the first read from
	 * DBGDTRTX is  supposed to block until the instruction is complete,
	 * but we see the first read returns junk, so it's read here and
	 * ignored. */
	apb_read(t, DBGDTRTX);
 800157c:	6ee0      	ldr	r0, [r4, #108]	; 0x6c
 800157e:	2123      	movs	r1, #35	; 0x23
 8001580:	f7ff fd46 	bl	8001010 <apb_read.isra.1>
 8001584:	697e      	ldr	r6, [r7, #20]
 8001586:	1975      	adds	r5, r6, r5

	for (unsigned i = 0; i < words; i++)
 8001588:	42ae      	cmp	r6, r5
 800158a:	d005      	beq.n	8001598 <cortexa_slow_mem_read+0x80>
		dest32[i] = apb_read(t, DBGDTRTX);
 800158c:	6ee0      	ldr	r0, [r4, #108]	; 0x6c
 800158e:	2123      	movs	r1, #35	; 0x23
 8001590:	f7ff fd3e 	bl	8001010 <apb_read.isra.1>
 8001594:	c601      	stmia	r6!, {r0}
 8001596:	e7f7      	b.n	8001588 <cortexa_slow_mem_read+0x70>

	memcpy(dest, (uint8_t*)dest32 + (src & 3), len);
 8001598:	693a      	ldr	r2, [r7, #16]
 800159a:	697b      	ldr	r3, [r7, #20]
 800159c:	4694      	mov	ip, r2
 800159e:	4463      	add	r3, ip
 80015a0:	1c19      	adds	r1, r3, #0
 80015a2:	68ba      	ldr	r2, [r7, #8]
 80015a4:	6838      	ldr	r0, [r7, #0]
 80015a6:	f00b f987 	bl	800c8b8 <memcpy>

	/* Switch back to stalling DCC mode */
	dbgdscr = (dbgdscr & ~DBGDSCR_EXTDCCMODE_MASK) | DBGDSCR_EXTDCCMODE_STALL;
 80015aa:	2280      	movs	r2, #128	; 0x80
 80015ac:	68fb      	ldr	r3, [r7, #12]
 80015ae:	0352      	lsls	r2, r2, #13
 80015b0:	431a      	orrs	r2, r3
	apb_write(t, DBGDSCR, dbgdscr);
 80015b2:	6ee0      	ldr	r0, [r4, #108]	; 0x6c
 80015b4:	2122      	movs	r1, #34	; 0x22
 80015b6:	f7ff fc59 	bl	8000e6c <apb_write.isra.0>

	if (apb_read(t, DBGDSCR) & DBGDSCR_SDABORT_L) {
 80015ba:	6ee0      	ldr	r0, [r4, #108]	; 0x6c
 80015bc:	2122      	movs	r1, #34	; 0x22
 80015be:	f7ff fd27 	bl	8001010 <apb_read.isra.1>
 80015c2:	0643      	lsls	r3, r0, #25
 80015c4:	d509      	bpl.n	80015da <cortexa_slow_mem_read+0xc2>
		/* Memory access aborted, flag a fault */
		apb_write(t, DBGDRCR, DBGDRCR_CSE);
 80015c6:	2204      	movs	r2, #4
 80015c8:	6ee0      	ldr	r0, [r4, #108]	; 0x6c
 80015ca:	2124      	movs	r1, #36	; 0x24
 80015cc:	f7ff fc4e 	bl	8000e6c <apb_write.isra.0>
		priv->mmu_fault = true;
 80015d0:	2201      	movs	r2, #1
 80015d2:	687b      	ldr	r3, [r7, #4]
 80015d4:	33e8      	adds	r3, #232	; 0xe8
 80015d6:	701a      	strb	r2, [r3, #0]
 80015d8:	e003      	b.n	80015e2 <cortexa_slow_mem_read+0xca>
	} else {
		apb_read(t, DBGDTRTX);
 80015da:	6ee0      	ldr	r0, [r4, #108]	; 0x6c
 80015dc:	2123      	movs	r1, #35	; 0x23
 80015de:	f7ff fd17 	bl	8001010 <apb_read.isra.1>
	}
}
 80015e2:	46bd      	mov	sp, r7
 80015e4:	b007      	add	sp, #28
 80015e6:	bdf0      	pop	{r4, r5, r6, r7, pc}
 80015e8:	ffcfffff 	.word	0xffcfffff
 80015ec:	ecb05e01 	.word	0xecb05e01

080015f0 <cortexa_breakwatch_set>:
	else
		return DBGBCR_BAS_LOW_HW;
}

static int cortexa_breakwatch_set(target *t, struct breakwatch *bw)
{
 80015f0:	b5f0      	push	{r4, r5, r6, r7, lr}
	struct cortexa_priv *priv = t->priv;
 80015f2:	6ec3      	ldr	r3, [r0, #108]	; 0x6c
	else
		return DBGBCR_BAS_LOW_HW;
}

static int cortexa_breakwatch_set(target *t, struct breakwatch *bw)
{
 80015f4:	b087      	sub	sp, #28
	struct cortexa_priv *priv = t->priv;
 80015f6:	9304      	str	r3, [sp, #16]
	unsigned i;

	switch (bw->type) {
 80015f8:	790d      	ldrb	r5, [r1, #4]
	else
		return DBGBCR_BAS_LOW_HW;
}

static int cortexa_breakwatch_set(target *t, struct breakwatch *bw)
{
 80015fa:	1c04      	adds	r4, r0, #0
 80015fc:	1c0e      	adds	r6, r1, #0
	struct cortexa_priv *priv = t->priv;
	unsigned i;

	switch (bw->type) {
 80015fe:	2d00      	cmp	r5, #0
 8001600:	d002      	beq.n	8001608 <cortexa_breakwatch_set+0x18>
 8001602:	2d01      	cmp	r5, #1
 8001604:	d01b      	beq.n	800163e <cortexa_breakwatch_set+0x4e>
 8001606:	e031      	b.n	800166c <cortexa_breakwatch_set+0x7c>
	case TARGET_BREAK_SOFT:
		switch (bw->size) {
 8001608:	68cb      	ldr	r3, [r1, #12]
 800160a:	2b02      	cmp	r3, #2
 800160c:	d00b      	beq.n	8001626 <cortexa_breakwatch_set+0x36>
 800160e:	2b04      	cmp	r3, #4
 8001610:	d12e      	bne.n	8001670 <cortexa_breakwatch_set+0x80>
		case 2:
			bw->reserved[0] = target_mem_read16(t, bw->addr);
			target_mem_write16(t, bw->addr, 0xBE00);
			return 0;
		case 4:
			bw->reserved[0] = target_mem_read32(t, bw->addr);
 8001612:	6889      	ldr	r1, [r1, #8]
 8001614:	f006 ff8a 	bl	800852c <target_mem_read32>
			target_mem_write32(t, bw->addr, 0xE1200070);
 8001618:	68b1      	ldr	r1, [r6, #8]
		case 2:
			bw->reserved[0] = target_mem_read16(t, bw->addr);
			target_mem_write16(t, bw->addr, 0xBE00);
			return 0;
		case 4:
			bw->reserved[0] = target_mem_read32(t, bw->addr);
 800161a:	6130      	str	r0, [r6, #16]
			target_mem_write32(t, bw->addr, 0xE1200070);
 800161c:	4a44      	ldr	r2, [pc, #272]	; (8001730 <cortexa_breakwatch_set+0x140>)
 800161e:	1c20      	adds	r0, r4, #0
 8001620:	f006 ff8c 	bl	800853c <target_mem_write32>
 8001624:	e009      	b.n	800163a <cortexa_breakwatch_set+0x4a>

	switch (bw->type) {
	case TARGET_BREAK_SOFT:
		switch (bw->size) {
		case 2:
			bw->reserved[0] = target_mem_read16(t, bw->addr);
 8001626:	6889      	ldr	r1, [r1, #8]
 8001628:	f006 ff8f 	bl	800854a <target_mem_read16>
			target_mem_write16(t, bw->addr, 0xBE00);
 800162c:	22be      	movs	r2, #190	; 0xbe

	switch (bw->type) {
	case TARGET_BREAK_SOFT:
		switch (bw->size) {
		case 2:
			bw->reserved[0] = target_mem_read16(t, bw->addr);
 800162e:	6130      	str	r0, [r6, #16]
			target_mem_write16(t, bw->addr, 0xBE00);
 8001630:	68b1      	ldr	r1, [r6, #8]
 8001632:	1c20      	adds	r0, r4, #0
 8001634:	0212      	lsls	r2, r2, #8
 8001636:	f006 ff92 	bl	800855e <target_mem_write16>
			return 0;
		case 4:
			bw->reserved[0] = target_mem_read32(t, bw->addr);
			target_mem_write32(t, bw->addr, 0xE1200070);
			return 0;
 800163a:	1c2f      	adds	r7, r5, #0
 800163c:	e075      	b.n	800172a <cortexa_breakwatch_set+0x13a>
		default:
			return -1;
		}
	case TARGET_BREAK_HARD:
		if ((bw->size != 4) && (bw->size != 2))
 800163e:	2202      	movs	r2, #2
 8001640:	68cb      	ldr	r3, [r1, #12]
 8001642:	3b02      	subs	r3, #2
 8001644:	4393      	bics	r3, r2
 8001646:	d113      	bne.n	8001670 <cortexa_breakwatch_set+0x80>
			return -1;

		for (i = 0; i < priv->hw_breakpoint_max; i++)
 8001648:	9a04      	ldr	r2, [sp, #16]
 800164a:	32d8      	adds	r2, #216	; 0xd8
 800164c:	6811      	ldr	r1, [r2, #0]
 800164e:	9303      	str	r3, [sp, #12]
 8001650:	9b03      	ldr	r3, [sp, #12]
 8001652:	428b      	cmp	r3, r1
 8001654:	d00c      	beq.n	8001670 <cortexa_breakwatch_set+0x80>
			if ((priv->hw_breakpoint_mask & (1 << i)) == 0)
 8001656:	9b04      	ldr	r3, [sp, #16]
 8001658:	9803      	ldr	r0, [sp, #12]
 800165a:	33dc      	adds	r3, #220	; 0xdc
 800165c:	881a      	ldrh	r2, [r3, #0]
 800165e:	2501      	movs	r5, #1
 8001660:	4102      	asrs	r2, r0
 8001662:	402a      	ands	r2, r5
 8001664:	1e17      	subs	r7, r2, #0
 8001666:	d006      	beq.n	8001676 <cortexa_breakwatch_set+0x86>
		}
	case TARGET_BREAK_HARD:
		if ((bw->size != 4) && (bw->size != 2))
			return -1;

		for (i = 0; i < priv->hw_breakpoint_max; i++)
 8001668:	1943      	adds	r3, r0, r5
 800166a:	e7f0      	b.n	800164e <cortexa_breakwatch_set+0x5e>
			priv->bvr0 = addr & ~3;
		}

		return 0;
	default:
		return 1;
 800166c:	2701      	movs	r7, #1
 800166e:	e05c      	b.n	800172a <cortexa_breakwatch_set+0x13a>
		default:
			return -1;
		}
	case TARGET_BREAK_HARD:
		if ((bw->size != 4) && (bw->size != 2))
			return -1;
 8001670:	2701      	movs	r7, #1
 8001672:	427f      	negs	r7, r7
 8001674:	e059      	b.n	800172a <cortexa_breakwatch_set+0x13a>

		if (i == priv->hw_breakpoint_max)
			return -1;

		bw->reserved[0] = i;
		priv->hw_breakpoint_mask |= (1 << i);
 8001676:	1c29      	adds	r1, r5, #0
 8001678:	9803      	ldr	r0, [sp, #12]
				break;

		if (i == priv->hw_breakpoint_max)
			return -1;

		bw->reserved[0] = i;
 800167a:	9a03      	ldr	r2, [sp, #12]
		priv->hw_breakpoint_mask |= (1 << i);
 800167c:	4081      	lsls	r1, r0
				break;

		if (i == priv->hw_breakpoint_max)
			return -1;

		bw->reserved[0] = i;
 800167e:	6132      	str	r2, [r6, #16]
		priv->hw_breakpoint_mask |= (1 << i);
 8001680:	881a      	ldrh	r2, [r3, #0]
}

static uint32_t va_to_pa(target *t, uint32_t va)
{
	struct cortexa_priv *priv = t->priv;
	write_gpreg(t, 0, va);
 8001682:	1c20      	adds	r0, r4, #0

		if (i == priv->hw_breakpoint_max)
			return -1;

		bw->reserved[0] = i;
		priv->hw_breakpoint_mask |= (1 << i);
 8001684:	430a      	orrs	r2, r1
 8001686:	801a      	strh	r2, [r3, #0]

		uint32_t addr = va_to_pa(t, bw->addr);
 8001688:	68b3      	ldr	r3, [r6, #8]
}

static uint32_t va_to_pa(target *t, uint32_t va)
{
	struct cortexa_priv *priv = t->priv;
	write_gpreg(t, 0, va);
 800168a:	1c39      	adds	r1, r7, #0
 800168c:	1c1a      	adds	r2, r3, #0
			return -1;

		bw->reserved[0] = i;
		priv->hw_breakpoint_mask |= (1 << i);

		uint32_t addr = va_to_pa(t, bw->addr);
 800168e:	9305      	str	r3, [sp, #20]
}

static uint32_t va_to_pa(target *t, uint32_t va)
{
	struct cortexa_priv *priv = t->priv;
	write_gpreg(t, 0, va);
 8001690:	f7ff fbff 	bl	8000e92 <write_gpreg>
	apb_write(t, DBGITR, MCR | ATS1CPR);
 8001694:	6ee0      	ldr	r0, [r4, #108]	; 0x6c
 8001696:	2121      	movs	r1, #33	; 0x21
 8001698:	4a26      	ldr	r2, [pc, #152]	; (8001734 <cortexa_breakwatch_set+0x144>)
 800169a:	f7ff fbe7 	bl	8000e6c <apb_write.isra.0>
	apb_write(t, DBGITR, MRC | PAR);
 800169e:	6ee0      	ldr	r0, [r4, #108]	; 0x6c
 80016a0:	2121      	movs	r1, #33	; 0x21
 80016a2:	4a25      	ldr	r2, [pc, #148]	; (8001738 <cortexa_breakwatch_set+0x148>)
 80016a4:	f7ff fbe2 	bl	8000e6c <apb_write.isra.0>
	uint32_t par = read_gpreg(t, 0);
 80016a8:	1c20      	adds	r0, r4, #0
 80016aa:	1c39      	adds	r1, r7, #0
 80016ac:	f7ff fcc8 	bl	8001040 <read_gpreg>
 80016b0:	1c03      	adds	r3, r0, #0
	if (par & 1)
 80016b2:	4228      	tst	r0, r5
 80016b4:	d002      	beq.n	80016bc <cortexa_breakwatch_set+0xcc>
		priv->mmu_fault = true;
 80016b6:	9a04      	ldr	r2, [sp, #16]
 80016b8:	32e8      	adds	r2, #232	; 0xe8
 80016ba:	7015      	strb	r5, [r2, #0]
	uint32_t pa = (par & ~0xfff) | (va & 0xfff);
 80016bc:	9a05      	ldr	r2, [sp, #20]
 80016be:	0b1d      	lsrs	r5, r3, #12
 80016c0:	0512      	lsls	r2, r2, #20
 80016c2:	0d12      	lsrs	r2, r2, #20
	DEBUG("%s: VA = 0x%08"PRIx32", PAR = 0x%08"PRIx32", PA = 0x%08"PRIX32"\n",
 80016c4:	491d      	ldr	r1, [pc, #116]	; (800173c <cortexa_breakwatch_set+0x14c>)
	apb_write(t, DBGITR, MCR | ATS1CPR);
	apb_write(t, DBGITR, MRC | PAR);
	uint32_t par = read_gpreg(t, 0);
	if (par & 1)
		priv->mmu_fault = true;
	uint32_t pa = (par & ~0xfff) | (va & 0xfff);
 80016c6:	032d      	lsls	r5, r5, #12
 80016c8:	4315      	orrs	r5, r2
	DEBUG("%s: VA = 0x%08"PRIx32", PAR = 0x%08"PRIx32", PA = 0x%08"PRIX32"\n",
 80016ca:	9500      	str	r5, [sp, #0]
 80016cc:	481c      	ldr	r0, [pc, #112]	; (8001740 <cortexa_breakwatch_set+0x150>)
 80016ce:	3126      	adds	r1, #38	; 0x26
 80016d0:	9a05      	ldr	r2, [sp, #20]
 80016d2:	f00b f9c3 	bl	800ca5c <iprintf>

		bw->reserved[0] = i;
		priv->hw_breakpoint_mask |= (1 << i);

		uint32_t addr = va_to_pa(t, bw->addr);
		uint32_t bcr =  bp_bas(addr, bw->size) | DBGBCR_EN;
 80016d6:	68f3      	ldr	r3, [r6, #12]
}

/* Breakpoints */
static uint32_t bp_bas(uint32_t addr, uint8_t len)
{
	if (len == 4)
 80016d8:	b2db      	uxtb	r3, r3
 80016da:	2b04      	cmp	r3, #4
 80016dc:	d003      	beq.n	80016e6 <cortexa_breakwatch_set+0xf6>
		return DBGBCR_BAS_ANY;
	else if (addr & 2)
 80016de:	07ab      	lsls	r3, r5, #30
 80016e0:	d403      	bmi.n	80016ea <cortexa_breakwatch_set+0xfa>
		return DBGBCR_BAS_HIGH_HW;
	else
		return DBGBCR_BAS_LOW_HW;
 80016e2:	2360      	movs	r3, #96	; 0x60
 80016e4:	e003      	b.n	80016ee <cortexa_breakwatch_set+0xfe>

/* Breakpoints */
static uint32_t bp_bas(uint32_t addr, uint8_t len)
{
	if (len == 4)
		return DBGBCR_BAS_ANY;
 80016e6:	23f0      	movs	r3, #240	; 0xf0
 80016e8:	e000      	b.n	80016ec <cortexa_breakwatch_set+0xfc>
	else if (addr & 2)
		return DBGBCR_BAS_HIGH_HW;
 80016ea:	23c0      	movs	r3, #192	; 0xc0
 80016ec:	005b      	lsls	r3, r3, #1

		bw->reserved[0] = i;
		priv->hw_breakpoint_mask |= (1 << i);

		uint32_t addr = va_to_pa(t, bw->addr);
		uint32_t bcr =  bp_bas(addr, bw->size) | DBGBCR_EN;
 80016ee:	2601      	movs	r6, #1
 80016f0:	431e      	orrs	r6, r3
		apb_write(t, DBGBVR(i), addr & ~3);
 80016f2:	466b      	mov	r3, sp
 80016f4:	899b      	ldrh	r3, [r3, #12]
 80016f6:	6ee0      	ldr	r0, [r4, #108]	; 0x6c
 80016f8:	9305      	str	r3, [sp, #20]
 80016fa:	2303      	movs	r3, #3
 80016fc:	9905      	ldr	r1, [sp, #20]
 80016fe:	439d      	bics	r5, r3
 8001700:	3140      	adds	r1, #64	; 0x40
 8001702:	b289      	uxth	r1, r1
 8001704:	1c2a      	adds	r2, r5, #0
 8001706:	f7ff fbb1 	bl	8000e6c <apb_write.isra.0>
		apb_write(t, DBGBCR(i), bcr);
 800170a:	9b05      	ldr	r3, [sp, #20]
 800170c:	6ee0      	ldr	r0, [r4, #108]	; 0x6c
 800170e:	3350      	adds	r3, #80	; 0x50
 8001710:	b299      	uxth	r1, r3
 8001712:	1c32      	adds	r2, r6, #0
 8001714:	f7ff fbaa 	bl	8000e6c <apb_write.isra.0>
		if (i == 0) {
 8001718:	9b03      	ldr	r3, [sp, #12]
 800171a:	2b00      	cmp	r3, #0
 800171c:	d105      	bne.n	800172a <cortexa_breakwatch_set+0x13a>
			priv->bcr0 = bcr;
 800171e:	9b04      	ldr	r3, [sp, #16]
 8001720:	33e0      	adds	r3, #224	; 0xe0
 8001722:	601e      	str	r6, [r3, #0]
			priv->bvr0 = addr & ~3;
 8001724:	9b04      	ldr	r3, [sp, #16]
 8001726:	33e4      	adds	r3, #228	; 0xe4
 8001728:	601d      	str	r5, [r3, #0]

		return 0;
	default:
		return 1;
	}
}
 800172a:	1c38      	adds	r0, r7, #0
 800172c:	b007      	add	sp, #28
 800172e:	bdf0      	pop	{r4, r5, r6, r7, pc}
 8001730:	e1200070 	.word	0xe1200070
 8001734:	ee070f18 	.word	0xee070f18
 8001738:	ee170f14 	.word	0xee170f14
 800173c:	0800ff3b 	.word	0x0800ff3b
 8001740:	0801060a 	.word	0x0801060a

08001744 <cortexa_probe>:
	return err;
}


bool cortexa_probe(ADIv5_AP_t *apb, uint32_t debug_base)
{
 8001744:	b5f7      	push	{r0, r1, r2, r4, r5, r6, r7, lr}
 8001746:	1c06      	adds	r6, r0, #0
 8001748:	9101      	str	r1, [sp, #4]
	target *t;

	t = target_new();
 800174a:	f006 fc41 	bl	8007fd0 <target_new>
 800174e:	1c04      	adds	r4, r0, #0
	adiv5_ap_ref(apb);
 8001750:	1c30      	adds	r0, r6, #0
 8001752:	f7fe fcd9 	bl	8000108 <adiv5_ap_ref>
	struct cortexa_priv *priv = calloc(1, sizeof(*priv));
 8001756:	21f0      	movs	r1, #240	; 0xf0
 8001758:	2001      	movs	r0, #1
 800175a:	f00b f88d 	bl	800c878 <calloc>
	t->priv = priv;
	t->priv_free = free;
 800175e:	4b23      	ldr	r3, [pc, #140]	; (80017ec <cortexa_probe+0xa8>)
{
	target *t;

	t = target_new();
	adiv5_ap_ref(apb);
	struct cortexa_priv *priv = calloc(1, sizeof(*priv));
 8001760:	1c05      	adds	r5, r0, #0
	t->priv = priv;
	t->priv_free = free;
 8001762:	6723      	str	r3, [r4, #112]	; 0x70
	target *t;

	t = target_new();
	adiv5_ap_ref(apb);
	struct cortexa_priv *priv = calloc(1, sizeof(*priv));
	t->priv = priv;
 8001764:	66e0      	str	r0, [r4, #108]	; 0x6c
	t->priv_free = free;
	priv->apb = apb;
	/* FIXME Find a better way to find the AHB.  This is likely to be
	 * device specific. */
	priv->ahb = adiv5_new_ap(apb->dp, 0);
 8001766:	2100      	movs	r1, #0
	t = target_new();
	adiv5_ap_ref(apb);
	struct cortexa_priv *priv = calloc(1, sizeof(*priv));
	t->priv = priv;
	t->priv_free = free;
	priv->apb = apb;
 8001768:	6046      	str	r6, [r0, #4]
	/* FIXME Find a better way to find the AHB.  This is likely to be
	 * device specific. */
	priv->ahb = adiv5_new_ap(apb->dp, 0);
 800176a:	6870      	ldr	r0, [r6, #4]
 800176c:	f7fe ff15 	bl	800059a <adiv5_new_ap>
		t->mem_read = cortexa_mem_read;
		t->mem_write = cortexa_mem_write;
	} else {
		/* This is not an AHB, fall back to slow APB access */
		adiv5_ap_unref(priv->ahb);
		priv->ahb = NULL;
 8001770:	2700      	movs	r7, #0
	t->priv = priv;
	t->priv_free = free;
	priv->apb = apb;
	/* FIXME Find a better way to find the AHB.  This is likely to be
	 * device specific. */
	priv->ahb = adiv5_new_ap(apb->dp, 0);
 8001772:	60a8      	str	r0, [r5, #8]
	adiv5_ap_ref(priv->ahb);
 8001774:	f7fe fcc8 	bl	8000108 <adiv5_ap_ref>
		/* This is an AHB */
		t->mem_read = cortexa_mem_read;
		t->mem_write = cortexa_mem_write;
	} else {
		/* This is not an AHB, fall back to slow APB access */
		adiv5_ap_unref(priv->ahb);
 8001778:	68a8      	ldr	r0, [r5, #8]
 800177a:	f7fe fcd3 	bl	8000124 <adiv5_ap_unref>
		t->mem_write = cortexa_slow_mem_write;
	}

	priv->base = debug_base;
	/* Set up APB CSW, we won't touch this again */
	uint32_t csw = apb->csw | ADIV5_AP_CSW_SIZE_WORD;
 800177e:	2202      	movs	r2, #2
	adiv5_ap_write(apb, ADIV5_AP_CSW, csw);
 8001780:	2180      	movs	r1, #128	; 0x80
		t->mem_write = cortexa_mem_write;
	} else {
		/* This is not an AHB, fall back to slow APB access */
		adiv5_ap_unref(priv->ahb);
		priv->ahb = NULL;
		t->mem_read = cortexa_slow_mem_read;
 8001782:	4b1b      	ldr	r3, [pc, #108]	; (80017f0 <cortexa_probe+0xac>)
		t->mem_read = cortexa_mem_read;
		t->mem_write = cortexa_mem_write;
	} else {
		/* This is not an AHB, fall back to slow APB access */
		adiv5_ap_unref(priv->ahb);
		priv->ahb = NULL;
 8001784:	60af      	str	r7, [r5, #8]
		t->mem_read = cortexa_slow_mem_read;
 8001786:	6163      	str	r3, [r4, #20]
		t->mem_write = cortexa_slow_mem_write;
 8001788:	4b1a      	ldr	r3, [pc, #104]	; (80017f4 <cortexa_probe+0xb0>)
	}

	priv->base = debug_base;
	/* Set up APB CSW, we won't touch this again */
	uint32_t csw = apb->csw | ADIV5_AP_CSW_SIZE_WORD;
	adiv5_ap_write(apb, ADIV5_AP_CSW, csw);
 800178a:	1c30      	adds	r0, r6, #0
	} else {
		/* This is not an AHB, fall back to slow APB access */
		adiv5_ap_unref(priv->ahb);
		priv->ahb = NULL;
		t->mem_read = cortexa_slow_mem_read;
		t->mem_write = cortexa_slow_mem_write;
 800178c:	61a3      	str	r3, [r4, #24]
	}

	priv->base = debug_base;
 800178e:	9b01      	ldr	r3, [sp, #4]
	/* Set up APB CSW, we won't touch this again */
	uint32_t csw = apb->csw | ADIV5_AP_CSW_SIZE_WORD;
	adiv5_ap_write(apb, ADIV5_AP_CSW, csw);
 8001790:	0049      	lsls	r1, r1, #1
		priv->ahb = NULL;
		t->mem_read = cortexa_slow_mem_read;
		t->mem_write = cortexa_slow_mem_write;
	}

	priv->base = debug_base;
 8001792:	602b      	str	r3, [r5, #0]
	/* Set up APB CSW, we won't touch this again */
	uint32_t csw = apb->csw | ADIV5_AP_CSW_SIZE_WORD;
 8001794:	69b3      	ldr	r3, [r6, #24]
	adiv5_ap_write(apb, ADIV5_AP_CSW, csw);
	uint32_t dbgdidr = apb_read(t, DBGDIDR);
	priv->hw_breakpoint_max = ((dbgdidr >> 24) & 15)+1;
 8001796:	35d8      	adds	r5, #216	; 0xd8
		t->mem_write = cortexa_slow_mem_write;
	}

	priv->base = debug_base;
	/* Set up APB CSW, we won't touch this again */
	uint32_t csw = apb->csw | ADIV5_AP_CSW_SIZE_WORD;
 8001798:	431a      	orrs	r2, r3
	adiv5_ap_write(apb, ADIV5_AP_CSW, csw);
 800179a:	f7fe fcd9 	bl	8000150 <adiv5_ap_write>
	uint32_t dbgdidr = apb_read(t, DBGDIDR);
 800179e:	1c39      	adds	r1, r7, #0
 80017a0:	6ee0      	ldr	r0, [r4, #108]	; 0x6c
 80017a2:	f7ff fc35 	bl	8001010 <apb_read.isra.1>
	priv->hw_breakpoint_max = ((dbgdidr >> 24) & 15)+1;
 80017a6:	0100      	lsls	r0, r0, #4

	t->check_error = cortexa_check_error;
 80017a8:	4b13      	ldr	r3, [pc, #76]	; (80017f8 <cortexa_probe+0xb4>)
	priv->base = debug_base;
	/* Set up APB CSW, we won't touch this again */
	uint32_t csw = apb->csw | ADIV5_AP_CSW_SIZE_WORD;
	adiv5_ap_write(apb, ADIV5_AP_CSW, csw);
	uint32_t dbgdidr = apb_read(t, DBGDIDR);
	priv->hw_breakpoint_max = ((dbgdidr >> 24) & 15)+1;
 80017aa:	0f00      	lsrs	r0, r0, #28
 80017ac:	3001      	adds	r0, #1
 80017ae:	6028      	str	r0, [r5, #0]

	t->check_error = cortexa_check_error;
 80017b0:	6123      	str	r3, [r4, #16]

	t->driver = cortexa_driver_str;
 80017b2:	4b12      	ldr	r3, [pc, #72]	; (80017fc <cortexa_probe+0xb8>)

	t->breakwatch_set = cortexa_breakwatch_set;
	t->breakwatch_clear = cortexa_breakwatch_clear;

	return true;
}
 80017b4:	2001      	movs	r0, #1
	uint32_t dbgdidr = apb_read(t, DBGDIDR);
	priv->hw_breakpoint_max = ((dbgdidr >> 24) & 15)+1;

	t->check_error = cortexa_check_error;

	t->driver = cortexa_driver_str;
 80017b6:	6623      	str	r3, [r4, #96]	; 0x60

	t->attach = cortexa_attach;
 80017b8:	4b11      	ldr	r3, [pc, #68]	; (8001800 <cortexa_probe+0xbc>)
 80017ba:	60a3      	str	r3, [r4, #8]
	t->detach = cortexa_detach;
 80017bc:	4b11      	ldr	r3, [pc, #68]	; (8001804 <cortexa_probe+0xc0>)
 80017be:	60e3      	str	r3, [r4, #12]

	t->tdesc = tdesc_cortex_a;
 80017c0:	4b11      	ldr	r3, [pc, #68]	; (8001808 <cortexa_probe+0xc4>)
 80017c2:	332f      	adds	r3, #47	; 0x2f
 80017c4:	6223      	str	r3, [r4, #32]
	t->regs_read = cortexa_regs_read;
 80017c6:	4b11      	ldr	r3, [pc, #68]	; (800180c <cortexa_probe+0xc8>)
 80017c8:	6263      	str	r3, [r4, #36]	; 0x24
	t->regs_write = cortexa_regs_write;
 80017ca:	4b11      	ldr	r3, [pc, #68]	; (8001810 <cortexa_probe+0xcc>)
 80017cc:	62a3      	str	r3, [r4, #40]	; 0x28

	t->reset = cortexa_reset;
 80017ce:	4b11      	ldr	r3, [pc, #68]	; (8001814 <cortexa_probe+0xd0>)
 80017d0:	62e3      	str	r3, [r4, #44]	; 0x2c
	t->halt_request = cortexa_halt_request;
 80017d2:	4b11      	ldr	r3, [pc, #68]	; (8001818 <cortexa_probe+0xd4>)
 80017d4:	6363      	str	r3, [r4, #52]	; 0x34
	t->halt_poll = cortexa_halt_poll;
 80017d6:	4b11      	ldr	r3, [pc, #68]	; (800181c <cortexa_probe+0xd8>)
 80017d8:	63a3      	str	r3, [r4, #56]	; 0x38
	t->halt_resume = cortexa_halt_resume;
 80017da:	4b11      	ldr	r3, [pc, #68]	; (8001820 <cortexa_probe+0xdc>)
 80017dc:	63e3      	str	r3, [r4, #60]	; 0x3c
	t->regs_size = sizeof(priv->reg_cache);
 80017de:	23c8      	movs	r3, #200	; 0xc8
 80017e0:	61e3      	str	r3, [r4, #28]

	t->breakwatch_set = cortexa_breakwatch_set;
 80017e2:	4b10      	ldr	r3, [pc, #64]	; (8001824 <cortexa_probe+0xe0>)
 80017e4:	6423      	str	r3, [r4, #64]	; 0x40
	t->breakwatch_clear = cortexa_breakwatch_clear;
 80017e6:	4b10      	ldr	r3, [pc, #64]	; (8001828 <cortexa_probe+0xe4>)
 80017e8:	6463      	str	r3, [r4, #68]	; 0x44

	return true;
}
 80017ea:	bdfe      	pop	{r1, r2, r3, r4, r5, r6, r7, pc}
 80017ec:	0800c8a5 	.word	0x0800c8a5
 80017f0:	08001519 	.word	0x08001519
 80017f4:	08001065 	.word	0x08001065
 80017f8:	08000e25 	.word	0x08000e25
 80017fc:	20000000 	.word	0x20000000
 8001800:	080013e1 	.word	0x080013e1
 8001804:	08001219 	.word	0x08001219
 8001808:	0800ff3b 	.word	0x0800ff3b
 800180c:	08000e5b 	.word	0x08000e5b
 8001810:	08000e4b 	.word	0x08000e4b
 8001814:	08001475 	.word	0x08001475
 8001818:	08000fb5 	.word	0x08000fb5
 800181c:	08001291 	.word	0x08001291
 8001820:	08001129 	.word	0x08001129
 8001824:	080015f1 	.word	0x080015f1
 8001828:	08000f51 	.word	0x08000f51

0800182c <cortexm_check_error>:
{
	adiv5_mem_write(cortexm_ap(t), dest, src, len);
}

static bool cortexm_check_error(target *t)
{
 800182c:	b508      	push	{r3, lr}
	"  </feature>"
	"</target>";

ADIv5_AP_t *cortexm_ap(target *t)
{
	return ((struct cortexm_priv *)t->priv)->ap;
 800182e:	6ec3      	ldr	r3, [r0, #108]	; 0x6c
}

static bool cortexm_check_error(target *t)
{
	ADIv5_AP_t *ap = cortexm_ap(t);
	return adiv5_dp_error(ap->dp) != 0;
 8001830:	681b      	ldr	r3, [r3, #0]
 8001832:	6858      	ldr	r0, [r3, #4]
	return dp->dp_read(dp, addr);
}

static inline uint32_t adiv5_dp_error(ADIv5_DP_t *dp)
{
	return dp->error(dp);
 8001834:	68c3      	ldr	r3, [r0, #12]
 8001836:	4798      	blx	r3
 8001838:	1e43      	subs	r3, r0, #1
 800183a:	4198      	sbcs	r0, r3
 800183c:	b2c0      	uxtb	r0, r0
}
 800183e:	bd08      	pop	{r3, pc}

08001840 <cortexm_vector_catch>:

	return target_mem_read32(t, CORTEXM_DWT_COMP(i));
}

static bool cortexm_vector_catch(target *t, int argc, char *argv[])
{
 8001840:	b5f0      	push	{r4, r5, r6, r7, lr}
	struct cortexm_priv *priv = t->priv;
	const char *vectors[] = {"reset", NULL, NULL, NULL, "mm", "nocp",
 8001842:	4b34      	ldr	r3, [pc, #208]	; (8001914 <cortexm_vector_catch+0xd4>)

	return target_mem_read32(t, CORTEXM_DWT_COMP(i));
}

static bool cortexm_vector_catch(target *t, int argc, char *argv[])
{
 8001844:	b091      	sub	sp, #68	; 0x44
 8001846:	1c05      	adds	r5, r0, #0
	struct cortexm_priv *priv = t->priv;
 8001848:	6ec6      	ldr	r6, [r0, #108]	; 0x6c
	const char *vectors[] = {"reset", NULL, NULL, NULL, "mm", "nocp",
 800184a:	a805      	add	r0, sp, #20

	return target_mem_read32(t, CORTEXM_DWT_COMP(i));
}

static bool cortexm_vector_catch(target *t, int argc, char *argv[])
{
 800184c:	4694      	mov	ip, r2
	struct cortexm_priv *priv = t->priv;
	const char *vectors[] = {"reset", NULL, NULL, NULL, "mm", "nocp",
 800184e:	cb94      	ldmia	r3!, {r2, r4, r7}
 8001850:	c094      	stmia	r0!, {r2, r4, r7}
 8001852:	cb94      	ldmia	r3!, {r2, r4, r7}
 8001854:	c094      	stmia	r0!, {r2, r4, r7}
 8001856:	cb94      	ldmia	r3!, {r2, r4, r7}
 8001858:	c094      	stmia	r0!, {r2, r4, r7}
 800185a:	cb14      	ldmia	r3!, {r2, r4}
 800185c:	c014      	stmia	r0!, {r2, r4}
				"chk", "stat", "bus", "int", "hard"};
	uint32_t tmp = 0;
	unsigned i;

	if ((argc < 3) || ((argv[1][0] != 'e') && (argv[1][0] != 'd'))) {
 800185e:	2902      	cmp	r1, #2
 8001860:	dd0d      	ble.n	800187e <cortexm_vector_catch+0x3e>
 8001862:	4663      	mov	r3, ip
 8001864:	685b      	ldr	r3, [r3, #4]
 8001866:	781b      	ldrb	r3, [r3, #0]
 8001868:	9302      	str	r3, [sp, #8]
 800186a:	3b64      	subs	r3, #100	; 0x64
 800186c:	2b01      	cmp	r3, #1
 800186e:	d806      	bhi.n	800187e <cortexm_vector_catch+0x3e>
 8001870:	4664      	mov	r4, ip
 8001872:	0089      	lsls	r1, r1, #2
 8001874:	1863      	adds	r3, r4, r1
 8001876:	9303      	str	r3, [sp, #12]
 8001878:	2300      	movs	r3, #0
 800187a:	9301      	str	r3, [sp, #4]
 800187c:	e010      	b.n	80018a0 <cortexm_vector_catch+0x60>
		tc_printf(t, "usage: monitor vector_catch (enable|disable) "
 800187e:	1c28      	adds	r0, r5, #0
 8001880:	4925      	ldr	r1, [pc, #148]	; (8001918 <cortexm_vector_catch+0xd8>)
 8001882:	f006 feb2 	bl	80085ea <tc_printf>
 8001886:	e027      	b.n	80018d8 <cortexm_vector_catch+0x98>
 8001888:	00bb      	lsls	r3, r7, #2
			     "(hard|int|bus|stat|chk|nocp|mm|reset)\n");
	} else {
		for (int j = 0; j < argc; j++)
			for (i = 0; i < sizeof(vectors) / sizeof(char*); i++) {
				if (vectors[i] && !strcmp(vectors[i], argv[j]))
 800188a:	aa05      	add	r2, sp, #20
 800188c:	5898      	ldr	r0, [r3, r2]
 800188e:	2800      	cmp	r0, #0
 8001890:	d108      	bne.n	80018a4 <cortexm_vector_catch+0x64>
	if ((argc < 3) || ((argv[1][0] != 'e') && (argv[1][0] != 'd'))) {
		tc_printf(t, "usage: monitor vector_catch (enable|disable) "
			     "(hard|int|bus|stat|chk|nocp|mm|reset)\n");
	} else {
		for (int j = 0; j < argc; j++)
			for (i = 0; i < sizeof(vectors) / sizeof(char*); i++) {
 8001892:	3701      	adds	r7, #1
 8001894:	2f0b      	cmp	r7, #11
 8001896:	d1f7      	bne.n	8001888 <cortexm_vector_catch+0x48>

	if ((argc < 3) || ((argv[1][0] != 'e') && (argv[1][0] != 'd'))) {
		tc_printf(t, "usage: monitor vector_catch (enable|disable) "
			     "(hard|int|bus|stat|chk|nocp|mm|reset)\n");
	} else {
		for (int j = 0; j < argc; j++)
 8001898:	9b03      	ldr	r3, [sp, #12]
 800189a:	3404      	adds	r4, #4
 800189c:	429c      	cmp	r4, r3
 800189e:	d00c      	beq.n	80018ba <cortexm_vector_catch+0x7a>

	return target_mem_read32(t, CORTEXM_DWT_COMP(i));
}

static bool cortexm_vector_catch(target *t, int argc, char *argv[])
{
 80018a0:	2700      	movs	r7, #0
 80018a2:	e7f1      	b.n	8001888 <cortexm_vector_catch+0x48>
		tc_printf(t, "usage: monitor vector_catch (enable|disable) "
			     "(hard|int|bus|stat|chk|nocp|mm|reset)\n");
	} else {
		for (int j = 0; j < argc; j++)
			for (i = 0; i < sizeof(vectors) / sizeof(char*); i++) {
				if (vectors[i] && !strcmp(vectors[i], argv[j]))
 80018a4:	6821      	ldr	r1, [r4, #0]
 80018a6:	f00b fab5 	bl	800ce14 <strcmp>
 80018aa:	2800      	cmp	r0, #0
 80018ac:	d1f1      	bne.n	8001892 <cortexm_vector_catch+0x52>
					tmp |= 1 << i;
 80018ae:	2301      	movs	r3, #1
 80018b0:	40bb      	lsls	r3, r7
 80018b2:	9a01      	ldr	r2, [sp, #4]
 80018b4:	431a      	orrs	r2, r3
 80018b6:	9201      	str	r2, [sp, #4]
 80018b8:	e7eb      	b.n	8001892 <cortexm_vector_catch+0x52>
			}

		if (argv[1][0] == 'e')
 80018ba:	9a02      	ldr	r2, [sp, #8]
 80018bc:	6a33      	ldr	r3, [r6, #32]
 80018be:	2a65      	cmp	r2, #101	; 0x65
 80018c0:	d102      	bne.n	80018c8 <cortexm_vector_catch+0x88>
			priv->demcr |= tmp;
 80018c2:	9a01      	ldr	r2, [sp, #4]
 80018c4:	4313      	orrs	r3, r2
 80018c6:	e001      	b.n	80018cc <cortexm_vector_catch+0x8c>
		else
			priv->demcr &= ~tmp;
 80018c8:	9a01      	ldr	r2, [sp, #4]
 80018ca:	4393      	bics	r3, r2
 80018cc:	6233      	str	r3, [r6, #32]

		target_mem_write32(t, CORTEXM_DEMCR, priv->demcr);
 80018ce:	1c28      	adds	r0, r5, #0
 80018d0:	4912      	ldr	r1, [pc, #72]	; (800191c <cortexm_vector_catch+0xdc>)
 80018d2:	6a32      	ldr	r2, [r6, #32]
 80018d4:	f006 fe32 	bl	800853c <target_mem_write32>
	}

	tc_printf(t, "Catching vectors: ");
 80018d8:	1c28      	adds	r0, r5, #0
 80018da:	4911      	ldr	r1, [pc, #68]	; (8001920 <cortexm_vector_catch+0xe0>)
 80018dc:	f006 fe85 	bl	80085ea <tc_printf>
	for (i = 0; i < sizeof(vectors) / sizeof(char*); i++) {
 80018e0:	2400      	movs	r4, #0
 80018e2:	00a3      	lsls	r3, r4, #2
		if (!vectors[i])
 80018e4:	aa05      	add	r2, sp, #20
 80018e6:	58d2      	ldr	r2, [r2, r3]
 80018e8:	2a00      	cmp	r2, #0
 80018ea:	d008      	beq.n	80018fe <cortexm_vector_catch+0xbe>
			continue;
		if (priv->demcr & (1 << i))
 80018ec:	2301      	movs	r3, #1
 80018ee:	40a3      	lsls	r3, r4
 80018f0:	6a31      	ldr	r1, [r6, #32]
 80018f2:	4219      	tst	r1, r3
 80018f4:	d003      	beq.n	80018fe <cortexm_vector_catch+0xbe>
			tc_printf(t, "%s ", vectors[i]);
 80018f6:	1c28      	adds	r0, r5, #0
 80018f8:	490a      	ldr	r1, [pc, #40]	; (8001924 <cortexm_vector_catch+0xe4>)
 80018fa:	f006 fe76 	bl	80085ea <tc_printf>

		target_mem_write32(t, CORTEXM_DEMCR, priv->demcr);
	}

	tc_printf(t, "Catching vectors: ");
	for (i = 0; i < sizeof(vectors) / sizeof(char*); i++) {
 80018fe:	3401      	adds	r4, #1
 8001900:	2c0b      	cmp	r4, #11
 8001902:	d1ee      	bne.n	80018e2 <cortexm_vector_catch+0xa2>
		if (!vectors[i])
			continue;
		if (priv->demcr & (1 << i))
			tc_printf(t, "%s ", vectors[i]);
	}
	tc_printf(t, "\n");
 8001904:	1c28      	adds	r0, r5, #0
 8001906:	4908      	ldr	r1, [pc, #32]	; (8001928 <cortexm_vector_catch+0xe8>)
 8001908:	f006 fe6f 	bl	80085ea <tc_printf>
	return true;
}
 800190c:	2001      	movs	r0, #1
 800190e:	b011      	add	sp, #68	; 0x44
 8001910:	bdf0      	pop	{r4, r5, r6, r7, pc}
 8001912:	46c0      	nop			; (mov r8, r8)
 8001914:	0801063c 	.word	0x0801063c
 8001918:	08011258 	.word	0x08011258
 800191c:	e000edfc 	.word	0xe000edfc
 8001920:	080112ac 	.word	0x080112ac
 8001924:	080112bf 	.word	0x080112bf
 8001928:	0800fc8c 	.word	0x0800fc8c

0800192c <cortexm_breakwatch_clear>:
		return 1;
	}
}

static int cortexm_breakwatch_clear(target *t, struct breakwatch *bw)
{
 800192c:	b510      	push	{r4, lr}
	struct cortexm_priv *priv = t->priv;
	unsigned i = bw->reserved[0];
 800192e:	690b      	ldr	r3, [r1, #16]
	switch (bw->type) {
 8001930:	7909      	ldrb	r1, [r1, #4]
	}
}

static int cortexm_breakwatch_clear(target *t, struct breakwatch *bw)
{
	struct cortexm_priv *priv = t->priv;
 8001932:	6ec2      	ldr	r2, [r0, #108]	; 0x6c
	unsigned i = bw->reserved[0];
	switch (bw->type) {
 8001934:	2901      	cmp	r1, #1
 8001936:	d00a      	beq.n	800194e <cortexm_breakwatch_clear+0x22>
 8001938:	2900      	cmp	r1, #0
 800193a:	d013      	beq.n	8001964 <cortexm_breakwatch_clear+0x38>
 800193c:	2904      	cmp	r1, #4
 800193e:	d811      	bhi.n	8001964 <cortexm_breakwatch_clear+0x38>
		target_mem_write32(t, CORTEXM_FPB_COMP(i), 0);
		return 0;
	case TARGET_WATCH_WRITE:
	case TARGET_WATCH_READ:
	case TARGET_WATCH_ACCESS:
		priv->hw_watchpoint[i] = false;
 8001940:	2400      	movs	r4, #0
 8001942:	18d2      	adds	r2, r2, r3
 8001944:	7194      	strb	r4, [r2, #6]
		target_mem_write32(t, CORTEXM_DWT_FUNC(i), 0);
 8001946:	4a08      	ldr	r2, [pc, #32]	; (8001968 <cortexm_breakwatch_clear+0x3c>)
 8001948:	011b      	lsls	r3, r3, #4
 800194a:	1899      	adds	r1, r3, r2
 800194c:	e005      	b.n	800195a <cortexm_breakwatch_clear+0x2e>
{
	struct cortexm_priv *priv = t->priv;
	unsigned i = bw->reserved[0];
	switch (bw->type) {
	case TARGET_BREAK_HARD:
		priv->hw_breakpoint[i] = false;
 800194e:	2400      	movs	r4, #0
 8001950:	18d2      	adds	r2, r2, r3
 8001952:	7514      	strb	r4, [r2, #20]
		target_mem_write32(t, CORTEXM_FPB_COMP(i), 0);
 8001954:	4a05      	ldr	r2, [pc, #20]	; (800196c <cortexm_breakwatch_clear+0x40>)
 8001956:	1899      	adds	r1, r3, r2
 8001958:	0089      	lsls	r1, r1, #2
		return 0;
	case TARGET_WATCH_WRITE:
	case TARGET_WATCH_READ:
	case TARGET_WATCH_ACCESS:
		priv->hw_watchpoint[i] = false;
		target_mem_write32(t, CORTEXM_DWT_FUNC(i), 0);
 800195a:	1c22      	adds	r2, r4, #0
 800195c:	f006 fdee 	bl	800853c <target_mem_write32>
		return 0;
 8001960:	1c20      	adds	r0, r4, #0
 8001962:	e000      	b.n	8001966 <cortexm_breakwatch_clear+0x3a>
	default:
		return 1;
 8001964:	2001      	movs	r0, #1
	}
}
 8001966:	bd10      	pop	{r4, pc}
 8001968:	e0001028 	.word	0xe0001028
 800196c:	38000802 	.word	0x38000802

08001970 <cortexm_detach>:

	return true;
}

void cortexm_detach(target *t)
{
 8001970:	b570      	push	{r4, r5, r6, lr}
 8001972:	1c04      	adds	r4, r0, #0
	struct cortexm_priv *priv = t->priv;
	unsigned i;

	/* Clear any stale breakpoints */
	for(i = 0; i < priv->hw_breakpoint_max; i++)
 8001974:	2500      	movs	r5, #0
	return true;
}

void cortexm_detach(target *t)
{
	struct cortexm_priv *priv = t->priv;
 8001976:	6ec6      	ldr	r6, [r0, #108]	; 0x6c
	unsigned i;

	/* Clear any stale breakpoints */
	for(i = 0; i < priv->hw_breakpoint_max; i++)
 8001978:	69f3      	ldr	r3, [r6, #28]
 800197a:	429d      	cmp	r5, r3
 800197c:	d208      	bcs.n	8001990 <cortexm_detach+0x20>
 800197e:	4b0e      	ldr	r3, [pc, #56]	; (80019b8 <cortexm_detach+0x48>)
		target_mem_write32(t, CORTEXM_FPB_COMP(i), 0);
 8001980:	1c20      	adds	r0, r4, #0
 8001982:	18e9      	adds	r1, r5, r3
 8001984:	0089      	lsls	r1, r1, #2
 8001986:	2200      	movs	r2, #0
 8001988:	f006 fdd8 	bl	800853c <target_mem_write32>
{
	struct cortexm_priv *priv = t->priv;
	unsigned i;

	/* Clear any stale breakpoints */
	for(i = 0; i < priv->hw_breakpoint_max; i++)
 800198c:	3501      	adds	r5, #1
 800198e:	e7f3      	b.n	8001978 <cortexm_detach+0x8>
 8001990:	2500      	movs	r5, #0
		target_mem_write32(t, CORTEXM_FPB_COMP(i), 0);

	/* Clear any stale watchpoints */
	for(i = 0; i < priv->hw_watchpoint_max; i++)
 8001992:	6933      	ldr	r3, [r6, #16]
 8001994:	429d      	cmp	r5, r3
 8001996:	d208      	bcs.n	80019aa <cortexm_detach+0x3a>
 8001998:	4b08      	ldr	r3, [pc, #32]	; (80019bc <cortexm_detach+0x4c>)
 800199a:	0129      	lsls	r1, r5, #4
 800199c:	18c9      	adds	r1, r1, r3
		target_mem_write32(t, CORTEXM_DWT_FUNC(i), 0);
 800199e:	1c20      	adds	r0, r4, #0
 80019a0:	2200      	movs	r2, #0
 80019a2:	f006 fdcb 	bl	800853c <target_mem_write32>
	/* Clear any stale breakpoints */
	for(i = 0; i < priv->hw_breakpoint_max; i++)
		target_mem_write32(t, CORTEXM_FPB_COMP(i), 0);

	/* Clear any stale watchpoints */
	for(i = 0; i < priv->hw_watchpoint_max; i++)
 80019a6:	3501      	adds	r5, #1
 80019a8:	e7f3      	b.n	8001992 <cortexm_detach+0x22>
		target_mem_write32(t, CORTEXM_DWT_FUNC(i), 0);

	/* Disable debug */
	target_mem_write32(t, CORTEXM_DHCSR, CORTEXM_DHCSR_DBGKEY);
 80019aa:	1c20      	adds	r0, r4, #0
 80019ac:	4904      	ldr	r1, [pc, #16]	; (80019c0 <cortexm_detach+0x50>)
 80019ae:	4a05      	ldr	r2, [pc, #20]	; (80019c4 <cortexm_detach+0x54>)
 80019b0:	f006 fdc4 	bl	800853c <target_mem_write32>
}
 80019b4:	bd70      	pop	{r4, r5, r6, pc}
 80019b6:	46c0      	nop			; (mov r8, r8)
 80019b8:	38000802 	.word	0x38000802
 80019bc:	e0001028 	.word	0xe0001028
 80019c0:	e000edf0 	.word	0xe000edf0
 80019c4:	a05f0000 	.word	0xa05f0000

080019c8 <cortexm_pc_read>:
			                    0x10000 | regnum_cortex_mf[i]);
		}
}

static uint32_t cortexm_pc_read(target *t)
{
 80019c8:	b510      	push	{r4, lr}
 80019ca:	1c04      	adds	r4, r0, #0
	target_mem_write32(t, CORTEXM_DCRSR, 0x0F);
 80019cc:	220f      	movs	r2, #15
 80019ce:	4904      	ldr	r1, [pc, #16]	; (80019e0 <cortexm_pc_read+0x18>)
 80019d0:	f006 fdb4 	bl	800853c <target_mem_write32>
	return target_mem_read32(t, CORTEXM_DCRDR);
 80019d4:	1c20      	adds	r0, r4, #0
 80019d6:	4903      	ldr	r1, [pc, #12]	; (80019e4 <cortexm_pc_read+0x1c>)
 80019d8:	f006 fda8 	bl	800852c <target_mem_read32>
}
 80019dc:	bd10      	pop	{r4, pc}
 80019de:	46c0      	nop			; (mov r8, r8)
 80019e0:	e000edf4 	.word	0xe000edf4
 80019e4:	e000edf8 	.word	0xe000edf8

080019e8 <cortexm_halt_request>:
}

static void cortexm_halt_request(target *t)
{
	volatile struct exception e;
	TRY_CATCH (e, EXCEPTION_TIMEOUT) {
 80019e8:	2200      	movs	r2, #0
	/* Reset DFSR flags */
	target_mem_write32(t, CORTEXM_DFSR, CORTEXM_DFSR_RESETALL);
}

static void cortexm_halt_request(target *t)
{
 80019ea:	b530      	push	{r4, r5, lr}
 80019ec:	b09f      	sub	sp, #124	; 0x7c
	volatile struct exception e;
	TRY_CATCH (e, EXCEPTION_TIMEOUT) {
 80019ee:	9203      	str	r2, [sp, #12]
 80019f0:	3202      	adds	r2, #2
 80019f2:	9205      	str	r2, [sp, #20]
 80019f4:	4a10      	ldr	r2, [pc, #64]	; (8001a38 <cortexm_halt_request+0x50>)
	/* Reset DFSR flags */
	target_mem_write32(t, CORTEXM_DFSR, CORTEXM_DFSR_RESETALL);
}

static void cortexm_halt_request(target *t)
{
 80019f6:	9001      	str	r0, [sp, #4]
	volatile struct exception e;
	TRY_CATCH (e, EXCEPTION_TIMEOUT) {
 80019f8:	6811      	ldr	r1, [r2, #0]
 80019fa:	ab03      	add	r3, sp, #12
 80019fc:	a806      	add	r0, sp, #24
 80019fe:	911d      	str	r1, [sp, #116]	; 0x74
 8001a00:	6013      	str	r3, [r2, #0]
 8001a02:	f00b f8d7 	bl	800cbb4 <setjmp>
 8001a06:	2800      	cmp	r0, #0
 8001a08:	d007      	beq.n	8001a1a <cortexm_halt_request+0x32>
		target_mem_write32(t, CORTEXM_DHCSR, CORTEXM_DHCSR_DBGKEY |
		                                          CORTEXM_DHCSR_C_HALT |
		                                          CORTEXM_DHCSR_C_DEBUGEN);
	}
	if (e.type) {
 8001a0a:	9b03      	ldr	r3, [sp, #12]
 8001a0c:	2b00      	cmp	r3, #0
 8001a0e:	d011      	beq.n	8001a34 <cortexm_halt_request+0x4c>
		tc_printf(t, "Timeout sending interrupt, is target in WFI?\n");
 8001a10:	9801      	ldr	r0, [sp, #4]
 8001a12:	490a      	ldr	r1, [pc, #40]	; (8001a3c <cortexm_halt_request+0x54>)
 8001a14:	f006 fde9 	bl	80085ea <tc_printf>
 8001a18:	e00c      	b.n	8001a34 <cortexm_halt_request+0x4c>
}

static void cortexm_halt_request(target *t)
{
	volatile struct exception e;
	TRY_CATCH (e, EXCEPTION_TIMEOUT) {
 8001a1a:	4d07      	ldr	r5, [pc, #28]	; (8001a38 <cortexm_halt_request+0x50>)
 8001a1c:	ab03      	add	r3, sp, #12
 8001a1e:	682c      	ldr	r4, [r5, #0]
 8001a20:	429c      	cmp	r4, r3
 8001a22:	d1f2      	bne.n	8001a0a <cortexm_halt_request+0x22>
		target_mem_write32(t, CORTEXM_DHCSR, CORTEXM_DHCSR_DBGKEY |
 8001a24:	9801      	ldr	r0, [sp, #4]
 8001a26:	4906      	ldr	r1, [pc, #24]	; (8001a40 <cortexm_halt_request+0x58>)
 8001a28:	4a06      	ldr	r2, [pc, #24]	; (8001a44 <cortexm_halt_request+0x5c>)
 8001a2a:	f006 fd87 	bl	800853c <target_mem_write32>
}

static void cortexm_halt_request(target *t)
{
	volatile struct exception e;
	TRY_CATCH (e, EXCEPTION_TIMEOUT) {
 8001a2e:	6ea3      	ldr	r3, [r4, #104]	; 0x68
 8001a30:	602b      	str	r3, [r5, #0]
 8001a32:	e7f2      	b.n	8001a1a <cortexm_halt_request+0x32>
		                                          CORTEXM_DHCSR_C_DEBUGEN);
	}
	if (e.type) {
		tc_printf(t, "Timeout sending interrupt, is target in WFI?\n");
	}
}
 8001a34:	b01f      	add	sp, #124	; 0x7c
 8001a36:	bd30      	pop	{r4, r5, pc}
 8001a38:	20001dc4 	.word	0x20001dc4
 8001a3c:	080105b2 	.word	0x080105b2
 8001a40:	e000edf0 	.word	0xe000edf0
 8001a44:	a05f0003 	.word	0xa05f0003

08001a48 <cortexm_halt_resume>:

	return TARGET_HALT_BREAKPOINT;
}

void cortexm_halt_resume(target *t, bool step)
{
 8001a48:	b5f8      	push	{r3, r4, r5, r6, r7, lr}
 8001a4a:	1c04      	adds	r4, r0, #0
 8001a4c:	1e0f      	subs	r7, r1, #0
	struct cortexm_priv *priv = t->priv;
 8001a4e:	6ec5      	ldr	r5, [r0, #108]	; 0x6c
	uint32_t dhcsr = CORTEXM_DHCSR_DBGKEY | CORTEXM_DHCSR_C_DEBUGEN;

	if (step)
 8001a50:	d001      	beq.n	8001a56 <cortexm_halt_resume+0xe>
		dhcsr |= CORTEXM_DHCSR_C_STEP | CORTEXM_DHCSR_C_MASKINTS;
 8001a52:	4e17      	ldr	r6, [pc, #92]	; (8001ab0 <cortexm_halt_resume+0x68>)
 8001a54:	e000      	b.n	8001a58 <cortexm_halt_resume+0x10>
}

void cortexm_halt_resume(target *t, bool step)
{
	struct cortexm_priv *priv = t->priv;
	uint32_t dhcsr = CORTEXM_DHCSR_DBGKEY | CORTEXM_DHCSR_C_DEBUGEN;
 8001a56:	4e17      	ldr	r6, [pc, #92]	; (8001ab4 <cortexm_halt_resume+0x6c>)

	if (step)
		dhcsr |= CORTEXM_DHCSR_C_STEP | CORTEXM_DHCSR_C_MASKINTS;

	/* Disable interrupts while single stepping... */
	if(step != priv->stepping) {
 8001a58:	792b      	ldrb	r3, [r5, #4]
 8001a5a:	42bb      	cmp	r3, r7
 8001a5c:	d006      	beq.n	8001a6c <cortexm_halt_resume+0x24>
		target_mem_write32(t, CORTEXM_DHCSR, dhcsr | CORTEXM_DHCSR_C_HALT);
 8001a5e:	2202      	movs	r2, #2
 8001a60:	1c20      	adds	r0, r4, #0
 8001a62:	4332      	orrs	r2, r6
 8001a64:	4914      	ldr	r1, [pc, #80]	; (8001ab8 <cortexm_halt_resume+0x70>)
 8001a66:	f006 fd69 	bl	800853c <target_mem_write32>
		priv->stepping = step;
 8001a6a:	712f      	strb	r7, [r5, #4]
	}

	if (priv->on_bkpt) {
 8001a6c:	796b      	ldrb	r3, [r5, #5]
 8001a6e:	2b00      	cmp	r3, #0
 8001a70:	d018      	beq.n	8001aa4 <cortexm_halt_resume+0x5c>
		uint32_t pc = cortexm_pc_read(t);
 8001a72:	1c20      	adds	r0, r4, #0
 8001a74:	f7ff ffa8 	bl	80019c8 <cortexm_pc_read>
 8001a78:	1c05      	adds	r5, r0, #0
		if ((target_mem_read16(t, pc) & 0xFF00) == 0xBE00)
 8001a7a:	1c20      	adds	r0, r4, #0
 8001a7c:	1c29      	adds	r1, r5, #0
 8001a7e:	f006 fd64 	bl	800854a <target_mem_read16>
 8001a82:	23ff      	movs	r3, #255	; 0xff
 8001a84:	021b      	lsls	r3, r3, #8
 8001a86:	4018      	ands	r0, r3
 8001a88:	23be      	movs	r3, #190	; 0xbe
 8001a8a:	021b      	lsls	r3, r3, #8
 8001a8c:	4298      	cmp	r0, r3
 8001a8e:	d109      	bne.n	8001aa4 <cortexm_halt_resume+0x5c>
			cortexm_pc_write(t, pc + 2);
 8001a90:	1caa      	adds	r2, r5, #2
	return target_mem_read32(t, CORTEXM_DCRDR);
}

static void cortexm_pc_write(target *t, const uint32_t val)
{
	target_mem_write32(t, CORTEXM_DCRDR, val);
 8001a92:	1c20      	adds	r0, r4, #0
 8001a94:	4909      	ldr	r1, [pc, #36]	; (8001abc <cortexm_halt_resume+0x74>)
 8001a96:	f006 fd51 	bl	800853c <target_mem_write32>
	target_mem_write32(t, CORTEXM_DCRSR, CORTEXM_DCRSR_REGWnR | 0x0F);
 8001a9a:	1c20      	adds	r0, r4, #0
 8001a9c:	4908      	ldr	r1, [pc, #32]	; (8001ac0 <cortexm_halt_resume+0x78>)
 8001a9e:	4a09      	ldr	r2, [pc, #36]	; (8001ac4 <cortexm_halt_resume+0x7c>)
 8001aa0:	f006 fd4c 	bl	800853c <target_mem_write32>
		uint32_t pc = cortexm_pc_read(t);
		if ((target_mem_read16(t, pc) & 0xFF00) == 0xBE00)
			cortexm_pc_write(t, pc + 2);
	}

	target_mem_write32(t, CORTEXM_DHCSR, dhcsr);
 8001aa4:	1c32      	adds	r2, r6, #0
 8001aa6:	1c20      	adds	r0, r4, #0
 8001aa8:	4903      	ldr	r1, [pc, #12]	; (8001ab8 <cortexm_halt_resume+0x70>)
 8001aaa:	f006 fd47 	bl	800853c <target_mem_write32>
}
 8001aae:	bdf8      	pop	{r3, r4, r5, r6, r7, pc}
 8001ab0:	a05f000d 	.word	0xa05f000d
 8001ab4:	a05f0001 	.word	0xa05f0001
 8001ab8:	e000edf0 	.word	0xe000edf0
 8001abc:	e000edf8 	.word	0xe000edf8
 8001ac0:	e000edf4 	.word	0xe000edf4
 8001ac4:	0001000f 	.word	0x0001000f

08001ac8 <cortexm_halt_poll>:
		tc_printf(t, "Timeout sending interrupt, is target in WFI?\n");
	}
}

static enum target_halt_reason cortexm_halt_poll(target *t, target_addr *watch)
{
 8001ac8:	b5f0      	push	{r4, r5, r6, r7, lr}
 8001aca:	b0c7      	sub	sp, #284	; 0x11c
 8001acc:	af02      	add	r7, sp, #8
	struct cortexm_priv *priv = t->priv;
 8001ace:	6ec3      	ldr	r3, [r0, #108]	; 0x6c
		tc_printf(t, "Timeout sending interrupt, is target in WFI?\n");
	}
}

static enum target_halt_reason cortexm_halt_poll(target *t, target_addr *watch)
{
 8001ad0:	63f9      	str	r1, [r7, #60]	; 0x3c
	struct cortexm_priv *priv = t->priv;

	volatile uint32_t dhcsr = 0;
	volatile struct exception e;
	TRY_CATCH (e, EXCEPTION_ALL) {
 8001ad2:	2150      	movs	r1, #80	; 0x50
	}
}

static enum target_halt_reason cortexm_halt_poll(target *t, target_addr *watch)
{
	struct cortexm_priv *priv = t->priv;
 8001ad4:	647b      	str	r3, [r7, #68]	; 0x44

	volatile uint32_t dhcsr = 0;
	volatile struct exception e;
	TRY_CATCH (e, EXCEPTION_ALL) {
 8001ad6:	2354      	movs	r3, #84	; 0x54
 8001ad8:	1879      	adds	r1, r7, r1
 8001ada:	18cb      	adds	r3, r1, r3
 8001adc:	21a4      	movs	r1, #164	; 0xa4

static enum target_halt_reason cortexm_halt_poll(target *t, target_addr *watch)
{
	struct cortexm_priv *priv = t->priv;

	volatile uint32_t dhcsr = 0;
 8001ade:	2200      	movs	r2, #0
	volatile struct exception e;
	TRY_CATCH (e, EXCEPTION_ALL) {
 8001ae0:	1879      	adds	r1, r7, r1

static enum target_halt_reason cortexm_halt_poll(target *t, target_addr *watch)
{
	struct cortexm_priv *priv = t->priv;

	volatile uint32_t dhcsr = 0;
 8001ae2:	657a      	str	r2, [r7, #84]	; 0x54
	volatile struct exception e;
	TRY_CATCH (e, EXCEPTION_ALL) {
 8001ae4:	600a      	str	r2, [r1, #0]
 8001ae6:	3a01      	subs	r2, #1
 8001ae8:	609a      	str	r2, [r3, #8]
 8001aea:	4ad0      	ldr	r2, [pc, #832]	; (8001e2c <cortexm_halt_poll+0x364>)
		tc_printf(t, "Timeout sending interrupt, is target in WFI?\n");
	}
}

static enum target_halt_reason cortexm_halt_poll(target *t, target_addr *watch)
{
 8001aec:	64f8      	str	r0, [r7, #76]	; 0x4c
	struct cortexm_priv *priv = t->priv;

	volatile uint32_t dhcsr = 0;
	volatile struct exception e;
	TRY_CATCH (e, EXCEPTION_ALL) {
 8001aee:	6811      	ldr	r1, [r2, #0]
 8001af0:	6013      	str	r3, [r2, #0]
 8001af2:	2250      	movs	r2, #80	; 0x50
 8001af4:	6699      	str	r1, [r3, #104]	; 0x68
 8001af6:	2360      	movs	r3, #96	; 0x60
 8001af8:	18ba      	adds	r2, r7, r2
 8001afa:	18d0      	adds	r0, r2, r3
 8001afc:	f00b f85a 	bl	800cbb4 <setjmp>
 8001b00:	2800      	cmp	r0, #0
 8001b02:	d009      	beq.n	8001b18 <cortexm_halt_poll+0x50>
		/* If this times out because the target is in WFI then
		 * the target is still running. */
		dhcsr = target_mem_read32(t, CORTEXM_DHCSR);
	}
	switch (e.type) {
 8001b04:	23a4      	movs	r3, #164	; 0xa4
 8001b06:	18fb      	adds	r3, r7, r3
 8001b08:	681c      	ldr	r4, [r3, #0]
 8001b0a:	2c01      	cmp	r4, #1
 8001b0c:	d014      	beq.n	8001b38 <cortexm_halt_poll+0x70>
		/* Oh crap, there's no recovery from this... */
		target_list_free();
		return TARGET_HALT_ERROR;
	case EXCEPTION_TIMEOUT:
		/* Timeout isn't a problem, target could be in WFI */
		return TARGET_HALT_RUNNING;
 8001b0e:	2000      	movs	r0, #0
	TRY_CATCH (e, EXCEPTION_ALL) {
		/* If this times out because the target is in WFI then
		 * the target is still running. */
		dhcsr = target_mem_read32(t, CORTEXM_DHCSR);
	}
	switch (e.type) {
 8001b10:	2c02      	cmp	r4, #2
 8001b12:	d100      	bne.n	8001b16 <cortexm_halt_poll+0x4e>
 8001b14:	e1eb      	b.n	8001eee <cortexm_halt_poll+0x426>
 8001b16:	e013      	b.n	8001b40 <cortexm_halt_poll+0x78>
{
	struct cortexm_priv *priv = t->priv;

	volatile uint32_t dhcsr = 0;
	volatile struct exception e;
	TRY_CATCH (e, EXCEPTION_ALL) {
 8001b18:	2250      	movs	r2, #80	; 0x50
 8001b1a:	2354      	movs	r3, #84	; 0x54
 8001b1c:	4dc3      	ldr	r5, [pc, #780]	; (8001e2c <cortexm_halt_poll+0x364>)
 8001b1e:	18ba      	adds	r2, r7, r2
 8001b20:	682c      	ldr	r4, [r5, #0]
 8001b22:	18d3      	adds	r3, r2, r3
 8001b24:	429c      	cmp	r4, r3
 8001b26:	d1ed      	bne.n	8001b04 <cortexm_halt_poll+0x3c>
		/* If this times out because the target is in WFI then
		 * the target is still running. */
		dhcsr = target_mem_read32(t, CORTEXM_DHCSR);
 8001b28:	6cf8      	ldr	r0, [r7, #76]	; 0x4c
 8001b2a:	49c1      	ldr	r1, [pc, #772]	; (8001e30 <cortexm_halt_poll+0x368>)
 8001b2c:	f006 fcfe 	bl	800852c <target_mem_read32>
 8001b30:	6578      	str	r0, [r7, #84]	; 0x54
{
	struct cortexm_priv *priv = t->priv;

	volatile uint32_t dhcsr = 0;
	volatile struct exception e;
	TRY_CATCH (e, EXCEPTION_ALL) {
 8001b32:	6ea3      	ldr	r3, [r4, #104]	; 0x68
 8001b34:	602b      	str	r3, [r5, #0]
 8001b36:	e7ef      	b.n	8001b18 <cortexm_halt_poll+0x50>
		dhcsr = target_mem_read32(t, CORTEXM_DHCSR);
	}
	switch (e.type) {
	case EXCEPTION_ERROR:
		/* Oh crap, there's no recovery from this... */
		target_list_free();
 8001b38:	f006 fa6e 	bl	8008018 <target_list_free>
		return TARGET_HALT_ERROR;
 8001b3c:	1c20      	adds	r0, r4, #0
 8001b3e:	e1d6      	b.n	8001eee <cortexm_halt_poll+0x426>
	case EXCEPTION_TIMEOUT:
		/* Timeout isn't a problem, target could be in WFI */
		return TARGET_HALT_RUNNING;
	}

	if (!(dhcsr & CORTEXM_DHCSR_S_HALT))
 8001b40:	6d7b      	ldr	r3, [r7, #84]	; 0x54
 8001b42:	039b      	lsls	r3, r3, #14
 8001b44:	d401      	bmi.n	8001b4a <cortexm_halt_poll+0x82>
		return TARGET_HALT_RUNNING;
 8001b46:	2000      	movs	r0, #0
 8001b48:	e1d1      	b.n	8001eee <cortexm_halt_poll+0x426>

	/* We've halted.  Let's find out why. */
	uint32_t dfsr = target_mem_read32(t, CORTEXM_DFSR);
 8001b4a:	4cba      	ldr	r4, [pc, #744]	; (8001e34 <cortexm_halt_poll+0x36c>)
 8001b4c:	6cf8      	ldr	r0, [r7, #76]	; 0x4c
 8001b4e:	1c21      	adds	r1, r4, #0
 8001b50:	f006 fcec 	bl	800852c <target_mem_read32>
 8001b54:	64b8      	str	r0, [r7, #72]	; 0x48
	target_mem_write32(t, CORTEXM_DFSR, dfsr); /* write back to reset */
 8001b56:	1c21      	adds	r1, r4, #0
 8001b58:	6cf8      	ldr	r0, [r7, #76]	; 0x4c
 8001b5a:	6cba      	ldr	r2, [r7, #72]	; 0x48
 8001b5c:	f006 fcee 	bl	800853c <target_mem_write32>

	if ((dfsr & CORTEXM_DFSR_VCATCH) && cortexm_fault_unwind(t))
 8001b60:	6cbb      	ldr	r3, [r7, #72]	; 0x48
 8001b62:	071b      	lsls	r3, r3, #28
 8001b64:	d407      	bmi.n	8001b76 <cortexm_halt_poll+0xae>
		return TARGET_HALT_FAULT;

	/* Remember if we stopped on a breakpoint */
	priv->on_bkpt = dfsr & (CORTEXM_DFSR_BKPT);
 8001b66:	6cbb      	ldr	r3, [r7, #72]	; 0x48
 8001b68:	079c      	lsls	r4, r3, #30
 8001b6a:	6c7b      	ldr	r3, [r7, #68]	; 0x44
 8001b6c:	0fe4      	lsrs	r4, r4, #31
 8001b6e:	715c      	strb	r4, [r3, #5]
	if (priv->on_bkpt) {
 8001b70:	d100      	bne.n	8001b74 <cortexm_halt_poll+0xac>
 8001b72:	e187      	b.n	8001e84 <cortexm_halt_poll+0x3bc>
 8001b74:	e07f      	b.n	8001c76 <cortexm_halt_poll+0x1ae>
	target_mem_write32(t, CORTEXM_DHCSR, dhcsr);
}

static int cortexm_fault_unwind(target *t)
{
	uint32_t hfsr = target_mem_read32(t, CORTEXM_HFSR);
 8001b76:	4eb0      	ldr	r6, [pc, #704]	; (8001e38 <cortexm_halt_poll+0x370>)
 8001b78:	6cf8      	ldr	r0, [r7, #76]	; 0x4c
 8001b7a:	1c31      	adds	r1, r6, #0
 8001b7c:	f006 fcd6 	bl	800852c <target_mem_read32>
	uint32_t cfsr = target_mem_read32(t, CORTEXM_CFSR);
 8001b80:	4dae      	ldr	r5, [pc, #696]	; (8001e3c <cortexm_halt_poll+0x374>)
	target_mem_write32(t, CORTEXM_DHCSR, dhcsr);
}

static int cortexm_fault_unwind(target *t)
{
	uint32_t hfsr = target_mem_read32(t, CORTEXM_HFSR);
 8001b82:	1c04      	adds	r4, r0, #0
	uint32_t cfsr = target_mem_read32(t, CORTEXM_CFSR);
 8001b84:	1c29      	adds	r1, r5, #0
 8001b86:	6cf8      	ldr	r0, [r7, #76]	; 0x4c
 8001b88:	f006 fcd0 	bl	800852c <target_mem_read32>
	target_mem_write32(t, CORTEXM_HFSR, hfsr);/* write back to reset */
 8001b8c:	1c22      	adds	r2, r4, #0
}

static int cortexm_fault_unwind(target *t)
{
	uint32_t hfsr = target_mem_read32(t, CORTEXM_HFSR);
	uint32_t cfsr = target_mem_read32(t, CORTEXM_CFSR);
 8001b8e:	6438      	str	r0, [r7, #64]	; 0x40
	target_mem_write32(t, CORTEXM_HFSR, hfsr);/* write back to reset */
 8001b90:	1c31      	adds	r1, r6, #0
 8001b92:	6cf8      	ldr	r0, [r7, #76]	; 0x4c
 8001b94:	f006 fcd2 	bl	800853c <target_mem_write32>
	target_mem_write32(t, CORTEXM_CFSR, cfsr);/* write back to reset */
 8001b98:	6cf8      	ldr	r0, [r7, #76]	; 0x4c
 8001b9a:	1c29      	adds	r1, r5, #0
 8001b9c:	6c3a      	ldr	r2, [r7, #64]	; 0x40
 8001b9e:	f006 fccd 	bl	800853c <target_mem_write32>
	/* We check for FORCED in the HardFault Status Register or
	 * for a configurable fault to avoid catching core resets */
	if((hfsr & CORTEXM_HFSR_FORCED) || cfsr) {
 8001ba2:	2380      	movs	r3, #128	; 0x80
 8001ba4:	05db      	lsls	r3, r3, #23
 8001ba6:	401c      	ands	r4, r3
 8001ba8:	6c3b      	ldr	r3, [r7, #64]	; 0x40
 8001baa:	4323      	orrs	r3, r4
 8001bac:	d0db      	beq.n	8001b66 <cortexm_halt_poll+0x9e>
 8001bae:	466b      	mov	r3, sp
		/* Unwind exception */
		uint32_t regs[t->regs_size / 4];
 8001bb0:	466a      	mov	r2, sp
 8001bb2:	637b      	str	r3, [r7, #52]	; 0x34
 8001bb4:	6cfb      	ldr	r3, [r7, #76]	; 0x4c
		uint32_t stack[8];
		uint32_t retcode, framesize;
		/* Read registers for post-exception stack pointer */
		target_regs_read(t, regs);
 8001bb6:	6cf8      	ldr	r0, [r7, #76]	; 0x4c
	target_mem_write32(t, CORTEXM_CFSR, cfsr);/* write back to reset */
	/* We check for FORCED in the HardFault Status Register or
	 * for a configurable fault to avoid catching core resets */
	if((hfsr & CORTEXM_HFSR_FORCED) || cfsr) {
		/* Unwind exception */
		uint32_t regs[t->regs_size / 4];
 8001bb8:	69db      	ldr	r3, [r3, #28]
 8001bba:	633b      	str	r3, [r7, #48]	; 0x30
 8001bbc:	089b      	lsrs	r3, r3, #2
 8001bbe:	009b      	lsls	r3, r3, #2
 8001bc0:	330a      	adds	r3, #10
 8001bc2:	08db      	lsrs	r3, r3, #3
 8001bc4:	00db      	lsls	r3, r3, #3
 8001bc6:	1ad3      	subs	r3, r2, r3
 8001bc8:	469d      	mov	sp, r3
 8001bca:	ac02      	add	r4, sp, #8
		uint32_t stack[8];
		uint32_t retcode, framesize;
		/* Read registers for post-exception stack pointer */
		target_regs_read(t, regs);
 8001bcc:	1c21      	adds	r1, r4, #0
 8001bce:	f006 fc39 	bl	8008444 <target_regs_read>
		/* save retcode currently in lr */
		retcode = regs[REG_LR];
 8001bd2:	6ba5      	ldr	r5, [r4, #56]	; 0x38
		bool spsel = retcode & (1<<2);
 8001bd4:	076e      	lsls	r6, r5, #29
 8001bd6:	0ff6      	lsrs	r6, r6, #31
		bool fpca = !(retcode & (1<<4));
		/* Read stack for pre-exception registers */
		uint32_t sp = spsel ? regs[REG_PSP] : regs[REG_MSP];
 8001bd8:	d001      	beq.n	8001bde <cortexm_halt_poll+0x116>
 8001bda:	6ca2      	ldr	r2, [r4, #72]	; 0x48
 8001bdc:	e000      	b.n	8001be0 <cortexm_halt_poll+0x118>
 8001bde:	6c62      	ldr	r2, [r4, #68]	; 0x44
		target_mem_read(t, stack, sp, sizeof(stack));
 8001be0:	2150      	movs	r1, #80	; 0x50
 8001be2:	2334      	movs	r3, #52	; 0x34
 8001be4:	1879      	adds	r1, r7, r1
 8001be6:	18c9      	adds	r1, r1, r3
 8001be8:	6cf8      	ldr	r0, [r7, #76]	; 0x4c
 8001bea:	3b14      	subs	r3, #20
 8001bec:	f006 fc1a 	bl	8008424 <target_mem_read>
		if (target_check_error(t))
 8001bf0:	6cf8      	ldr	r0, [r7, #76]	; 0x4c
 8001bf2:	f006 fc11 	bl	8008418 <target_check_error>
			return 0;
 8001bf6:	2300      	movs	r3, #0
		bool spsel = retcode & (1<<2);
		bool fpca = !(retcode & (1<<4));
		/* Read stack for pre-exception registers */
		uint32_t sp = spsel ? regs[REG_PSP] : regs[REG_MSP];
		target_mem_read(t, stack, sp, sizeof(stack));
		if (target_check_error(t))
 8001bf8:	4298      	cmp	r0, r3
 8001bfa:	d135      	bne.n	8001c68 <cortexm_halt_poll+0x1a0>
			return 0;
		regs[REG_LR] = stack[5];	/* restore LR to pre-exception state */
 8001bfc:	3398      	adds	r3, #152	; 0x98
 8001bfe:	18fb      	adds	r3, r7, r3
 8001c00:	681b      	ldr	r3, [r3, #0]
		/* Read registers for post-exception stack pointer */
		target_regs_read(t, regs);
		/* save retcode currently in lr */
		retcode = regs[REG_LR];
		bool spsel = retcode & (1<<2);
		bool fpca = !(retcode & (1<<4));
 8001c02:	2201      	movs	r2, #1
		/* Read stack for pre-exception registers */
		uint32_t sp = spsel ? regs[REG_PSP] : regs[REG_MSP];
		target_mem_read(t, stack, sp, sizeof(stack));
		if (target_check_error(t))
			return 0;
		regs[REG_LR] = stack[5];	/* restore LR to pre-exception state */
 8001c04:	62fb      	str	r3, [r7, #44]	; 0x2c
 8001c06:	63a3      	str	r3, [r4, #56]	; 0x38
		regs[REG_PC] = stack[6];	/* restore PC to pre-exception state */
 8001c08:	239c      	movs	r3, #156	; 0x9c
 8001c0a:	18fb      	adds	r3, r7, r3
 8001c0c:	681b      	ldr	r3, [r3, #0]
		/* Read registers for post-exception stack pointer */
		target_regs_read(t, regs);
		/* save retcode currently in lr */
		retcode = regs[REG_LR];
		bool spsel = retcode & (1<<2);
		bool fpca = !(retcode & (1<<4));
 8001c0e:	092d      	lsrs	r5, r5, #4
		uint32_t sp = spsel ? regs[REG_PSP] : regs[REG_MSP];
		target_mem_read(t, stack, sp, sizeof(stack));
		if (target_check_error(t))
			return 0;
		regs[REG_LR] = stack[5];	/* restore LR to pre-exception state */
		regs[REG_PC] = stack[6];	/* restore PC to pre-exception state */
 8001c10:	63e3      	str	r3, [r4, #60]	; 0x3c
		/* Read registers for post-exception stack pointer */
		target_regs_read(t, regs);
		/* save retcode currently in lr */
		retcode = regs[REG_LR];
		bool spsel = retcode & (1<<2);
		bool fpca = !(retcode & (1<<4));
 8001c12:	43aa      	bics	r2, r5
			return 0;
		regs[REG_LR] = stack[5];	/* restore LR to pre-exception state */
		regs[REG_PC] = stack[6];	/* restore PC to pre-exception state */

		/* adjust stack to pop exception state */
		framesize = fpca ? 0x68 : 0x20;	/* check for basic vs. extended frame */
 8001c14:	2368      	movs	r3, #104	; 0x68
 8001c16:	2a00      	cmp	r2, #0
 8001c18:	d100      	bne.n	8001c1c <cortexm_halt_poll+0x154>
 8001c1a:	3b48      	subs	r3, #72	; 0x48
		if (stack[7] & (1<<9))				/* check for stack alignment fixup */
 8001c1c:	21a0      	movs	r1, #160	; 0xa0
 8001c1e:	1879      	adds	r1, r7, r1
 8001c20:	6809      	ldr	r1, [r1, #0]
 8001c22:	0589      	lsls	r1, r1, #22
 8001c24:	d500      	bpl.n	8001c28 <cortexm_halt_poll+0x160>
			framesize += 4;
 8001c26:	3304      	adds	r3, #4

		if (spsel) {
 8001c28:	2e00      	cmp	r6, #0
 8001c2a:	d008      	beq.n	8001c3e <cortexm_halt_poll+0x176>
			regs[REG_SPECIAL] |= 0x4000000;
 8001c2c:	2180      	movs	r1, #128	; 0x80
 8001c2e:	6ce0      	ldr	r0, [r4, #76]	; 0x4c
 8001c30:	04c9      	lsls	r1, r1, #19
 8001c32:	4301      	orrs	r1, r0
 8001c34:	64e1      	str	r1, [r4, #76]	; 0x4c
			regs[REG_SP] = regs[REG_PSP] += framesize;
 8001c36:	6ca1      	ldr	r1, [r4, #72]	; 0x48
 8001c38:	185b      	adds	r3, r3, r1
 8001c3a:	64a3      	str	r3, [r4, #72]	; 0x48
 8001c3c:	e002      	b.n	8001c44 <cortexm_halt_poll+0x17c>
		} else {
			regs[REG_SP] = regs[REG_MSP] += framesize;
 8001c3e:	6c61      	ldr	r1, [r4, #68]	; 0x44
 8001c40:	185b      	adds	r3, r3, r1
 8001c42:	6463      	str	r3, [r4, #68]	; 0x44
 8001c44:	6363      	str	r3, [r4, #52]	; 0x34
		}

		if (fpca)
 8001c46:	2a00      	cmp	r2, #0
 8001c48:	d004      	beq.n	8001c54 <cortexm_halt_poll+0x18c>
			regs[REG_SPECIAL] |= 0x2000000;
 8001c4a:	2380      	movs	r3, #128	; 0x80
 8001c4c:	6ce2      	ldr	r2, [r4, #76]	; 0x4c
 8001c4e:	049b      	lsls	r3, r3, #18
 8001c50:	4313      	orrs	r3, r2
 8001c52:	64e3      	str	r3, [r4, #76]	; 0x4c
		/* although, if we caught the exception it will be unchanged */

		/* Reset exception state to allow resuming from restored
		 * state.
		 */
		target_mem_write32(t, CORTEXM_AIRCR,
 8001c54:	6cf8      	ldr	r0, [r7, #76]	; 0x4c
 8001c56:	497a      	ldr	r1, [pc, #488]	; (8001e40 <cortexm_halt_poll+0x378>)
 8001c58:	4a7a      	ldr	r2, [pc, #488]	; (8001e44 <cortexm_halt_poll+0x37c>)
 8001c5a:	f006 fc6f 	bl	800853c <target_mem_write32>
				CORTEXM_AIRCR_VECTKEY | CORTEXM_AIRCR_VECTCLRACTIVE);

		/* Write pre-exception registers back to core */
		target_regs_write(t, regs);
 8001c5e:	6cf8      	ldr	r0, [r7, #76]	; 0x4c
 8001c60:	1c21      	adds	r1, r4, #0
 8001c62:	f006 fbf3 	bl	800844c <target_regs_write>

		return 1;
 8001c66:	2301      	movs	r3, #1
 8001c68:	6b7a      	ldr	r2, [r7, #52]	; 0x34
	/* We've halted.  Let's find out why. */
	uint32_t dfsr = target_mem_read32(t, CORTEXM_DFSR);
	target_mem_write32(t, CORTEXM_DFSR, dfsr); /* write back to reset */

	if ((dfsr & CORTEXM_DFSR_VCATCH) && cortexm_fault_unwind(t))
		return TARGET_HALT_FAULT;
 8001c6a:	2006      	movs	r0, #6
 8001c6c:	4695      	mov	sp, r2

	/* We've halted.  Let's find out why. */
	uint32_t dfsr = target_mem_read32(t, CORTEXM_DFSR);
	target_mem_write32(t, CORTEXM_DFSR, dfsr); /* write back to reset */

	if ((dfsr & CORTEXM_DFSR_VCATCH) && cortexm_fault_unwind(t))
 8001c6e:	2b00      	cmp	r3, #0
 8001c70:	d000      	beq.n	8001c74 <cortexm_halt_poll+0x1ac>
 8001c72:	e13c      	b.n	8001eee <cortexm_halt_poll+0x426>
 8001c74:	e777      	b.n	8001b66 <cortexm_halt_poll+0x9e>
	/* Remember if we stopped on a breakpoint */
	priv->on_bkpt = dfsr & (CORTEXM_DFSR_BKPT);
	if (priv->on_bkpt) {
		/* If we've hit a programmed breakpoint, check for semihosting
		 * call. */
		uint32_t pc = cortexm_pc_read(t);
 8001c76:	6cf8      	ldr	r0, [r7, #76]	; 0x4c
 8001c78:	f7ff fea6 	bl	80019c8 <cortexm_pc_read>
 8001c7c:	1c01      	adds	r1, r0, #0
		uint16_t bkpt_instr;
		bkpt_instr = target_mem_read16(t, pc);
 8001c7e:	6cf8      	ldr	r0, [r7, #76]	; 0x4c
 8001c80:	f006 fc63 	bl	800854a <target_mem_read16>
		if (bkpt_instr == 0xBEAB) {
 8001c84:	4b70      	ldr	r3, [pc, #448]	; (8001e48 <cortexm_halt_poll+0x380>)
 8001c86:	4298      	cmp	r0, r3
 8001c88:	d000      	beq.n	8001c8c <cortexm_halt_poll+0x1c4>
 8001c8a:	e0fb      	b.n	8001e84 <cortexm_halt_poll+0x3bc>
 8001c8c:	466b      	mov	r3, sp
#define SYS_WRITEC	0x03
#define SYS_WRITE0	0x04

static int cortexm_hostio_request(target *t)
{
	uint32_t arm_regs[t->regs_size];
 8001c8e:	466a      	mov	r2, sp
 8001c90:	63bb      	str	r3, [r7, #56]	; 0x38
 8001c92:	6cfb      	ldr	r3, [r7, #76]	; 0x4c
	uint32_t params[4];

	t->tc->interrupted = false;
	target_regs_read(t, arm_regs);
 8001c94:	6cf8      	ldr	r0, [r7, #76]	; 0x4c
#define SYS_WRITEC	0x03
#define SYS_WRITE0	0x04

static int cortexm_hostio_request(target *t)
{
	uint32_t arm_regs[t->regs_size];
 8001c96:	69db      	ldr	r3, [r3, #28]
 8001c98:	62bb      	str	r3, [r7, #40]	; 0x28
 8001c9a:	009b      	lsls	r3, r3, #2
 8001c9c:	330a      	adds	r3, #10
 8001c9e:	08db      	lsrs	r3, r3, #3
 8001ca0:	00db      	lsls	r3, r3, #3
 8001ca2:	1ad3      	subs	r3, r2, r3
 8001ca4:	469d      	mov	sp, r3
	uint32_t params[4];

	t->tc->interrupted = false;
 8001ca6:	2200      	movs	r2, #0
 8001ca8:	6cfb      	ldr	r3, [r7, #76]	; 0x4c
#define SYS_WRITEC	0x03
#define SYS_WRITE0	0x04

static int cortexm_hostio_request(target *t)
{
	uint32_t arm_regs[t->regs_size];
 8001caa:	ac02      	add	r4, sp, #8
	uint32_t params[4];

	t->tc->interrupted = false;
 8001cac:	685b      	ldr	r3, [r3, #4]
	target_regs_read(t, arm_regs);
 8001cae:	1c21      	adds	r1, r4, #0
static int cortexm_hostio_request(target *t)
{
	uint32_t arm_regs[t->regs_size];
	uint32_t params[4];

	t->tc->interrupted = false;
 8001cb0:	627b      	str	r3, [r7, #36]	; 0x24
 8001cb2:	3339      	adds	r3, #57	; 0x39
 8001cb4:	701a      	strb	r2, [r3, #0]
	target_regs_read(t, arm_regs);
 8001cb6:	f006 fbc5 	bl	8008444 <target_regs_read>
	target_mem_read(t, params, arm_regs[1], sizeof(params));
 8001cba:	2250      	movs	r2, #80	; 0x50
 8001cbc:	230c      	movs	r3, #12
 8001cbe:	18ba      	adds	r2, r7, r2
 8001cc0:	18d1      	adds	r1, r2, r3
 8001cc2:	6cf8      	ldr	r0, [r7, #76]	; 0x4c
 8001cc4:	6862      	ldr	r2, [r4, #4]
 8001cc6:	3304      	adds	r3, #4
 8001cc8:	f006 fbac 	bl	8008424 <target_mem_read>
	uint32_t syscall = arm_regs[0];
	int32_t ret = 0;

	DEBUG("syscall 0"PRIx32"%"PRIx32" (%"PRIx32" %"PRIx32" %"PRIx32" %"PRIx32")\n",
 8001ccc:	6e7b      	ldr	r3, [r7, #100]	; 0x64
	uint32_t params[4];

	t->tc->interrupted = false;
	target_regs_read(t, arm_regs);
	target_mem_read(t, params, arm_regs[1], sizeof(params));
	uint32_t syscall = arm_regs[0];
 8001cce:	6826      	ldr	r6, [r4, #0]
	int32_t ret = 0;

	DEBUG("syscall 0"PRIx32"%"PRIx32" (%"PRIx32" %"PRIx32" %"PRIx32" %"PRIx32")\n",
 8001cd0:	623b      	str	r3, [r7, #32]
 8001cd2:	9300      	str	r3, [sp, #0]
 8001cd4:	6ebb      	ldr	r3, [r7, #104]	; 0x68
 8001cd6:	485d      	ldr	r0, [pc, #372]	; (8001e4c <cortexm_halt_poll+0x384>)
 8001cd8:	61fb      	str	r3, [r7, #28]
 8001cda:	9301      	str	r3, [sp, #4]
 8001cdc:	1c31      	adds	r1, r6, #0
 8001cde:	6dfa      	ldr	r2, [r7, #92]	; 0x5c
 8001ce0:	6e3b      	ldr	r3, [r7, #96]	; 0x60
 8001ce2:	f00a febb 	bl	800ca5c <iprintf>
              syscall, params[0], params[1], params[2], params[3]);
	switch (syscall) {
 8001ce6:	1e70      	subs	r0, r6, #1
 8001ce8:	2812      	cmp	r0, #18
 8001cea:	d900      	bls.n	8001cee <cortexm_halt_poll+0x226>
 8001cec:	e0b4      	b.n	8001e58 <cortexm_halt_poll+0x390>
 8001cee:	f00c fe45 	bl	800e97c <__gnu_thumb1_case_uqi>
 8001cf2:	430a      	.short	0x430a
 8001cf4:	4951b35d 	.word	0x4951b35d
 8001cf8:	6a64b3b3 	.word	0x6a64b3b3
 8001cfc:	80b390b3 	.word	0x80b390b3
 8001d00:	88b3b372 	.word	0x88b3b372
 8001d04:	97          	.byte	0x97
 8001d05:	00          	.byte	0x00
	case SYS_OPEN:{	/* open */
		/* Translate stupid fopen modes to open flags.
		 * See DUI0471C, Table 8-3 */
		const uint32_t flags[] = {
 8001d06:	2250      	movs	r2, #80	; 0x50
 8001d08:	231c      	movs	r3, #28
 8001d0a:	18ba      	adds	r2, r7, r2
 8001d0c:	18d2      	adds	r2, r2, r3
 8001d0e:	1c11      	adds	r1, r2, #0
 8001d10:	4b4f      	ldr	r3, [pc, #316]	; (8001e50 <cortexm_halt_poll+0x388>)
 8001d12:	332c      	adds	r3, #44	; 0x2c
 8001d14:	cb61      	ldmia	r3!, {r0, r5, r6}
 8001d16:	c161      	stmia	r1!, {r0, r5, r6}
 8001d18:	cb61      	ldmia	r3!, {r0, r5, r6}
 8001d1a:	c161      	stmia	r1!, {r0, r5, r6}
			TARGET_O_WRONLY | TARGET_O_CREAT | TARGET_O_TRUNC,/*w*/
			TARGET_O_RDWR | TARGET_O_CREAT | TARGET_O_TRUNC,/*w+*/
			TARGET_O_WRONLY | TARGET_O_CREAT | TARGET_O_APPEND,/*a*/
			TARGET_O_RDWR | TARGET_O_CREAT | TARGET_O_APPEND,/*a+*/
		};
		uint32_t pflag = flags[params[1] >> 1];
 8001d1c:	6e3b      	ldr	r3, [r7, #96]	; 0x60
		char filename[4];

		target_mem_read(t, filename, params[0], sizeof(filename));
 8001d1e:	6cf8      	ldr	r0, [r7, #76]	; 0x4c
			TARGET_O_WRONLY | TARGET_O_CREAT | TARGET_O_TRUNC,/*w*/
			TARGET_O_RDWR | TARGET_O_CREAT | TARGET_O_TRUNC,/*w+*/
			TARGET_O_WRONLY | TARGET_O_CREAT | TARGET_O_APPEND,/*a*/
			TARGET_O_RDWR | TARGET_O_CREAT | TARGET_O_APPEND,/*a+*/
		};
		uint32_t pflag = flags[params[1] >> 1];
 8001d20:	61bb      	str	r3, [r7, #24]
 8001d22:	085b      	lsrs	r3, r3, #1
 8001d24:	009b      	lsls	r3, r3, #2
 8001d26:	589e      	ldr	r6, [r3, r2]
		char filename[4];

		target_mem_read(t, filename, params[0], sizeof(filename));
 8001d28:	2250      	movs	r2, #80	; 0x50
 8001d2a:	2308      	movs	r3, #8
 8001d2c:	18ba      	adds	r2, r7, r2
 8001d2e:	18d1      	adds	r1, r2, r3
 8001d30:	6dfa      	ldr	r2, [r7, #92]	; 0x5c
 8001d32:	3b04      	subs	r3, #4
 8001d34:	f006 fb76 	bl	8008424 <target_mem_read>
		/* handle requests for console i/o */
		if (!strcmp(filename, ":tt")) {
 8001d38:	2250      	movs	r2, #80	; 0x50
 8001d3a:	2308      	movs	r3, #8
 8001d3c:	18ba      	adds	r2, r7, r2
 8001d3e:	18d0      	adds	r0, r2, r3
 8001d40:	4944      	ldr	r1, [pc, #272]	; (8001e54 <cortexm_halt_poll+0x38c>)
 8001d42:	f00b f867 	bl	800ce14 <strcmp>
 8001d46:	2800      	cmp	r0, #0
 8001d48:	d107      	bne.n	8001d5a <cortexm_halt_poll+0x292>
			if (pflag == TARGET_O_RDONLY)
				ret = STDIN_FILENO;
 8001d4a:	1e30      	subs	r0, r6, #0
		char filename[4];

		target_mem_read(t, filename, params[0], sizeof(filename));
		/* handle requests for console i/o */
		if (!strcmp(filename, ":tt")) {
			if (pflag == TARGET_O_RDONLY)
 8001d4c:	d003      	beq.n	8001d56 <cortexm_halt_poll+0x28e>
				ret = STDIN_FILENO;
			else if (pflag & TARGET_O_TRUNC)
				ret = STDOUT_FILENO;
			else
				ret = STDERR_FILENO;
 8001d4e:	2302      	movs	r3, #2
		target_mem_read(t, filename, params[0], sizeof(filename));
		/* handle requests for console i/o */
		if (!strcmp(filename, ":tt")) {
			if (pflag == TARGET_O_RDONLY)
				ret = STDIN_FILENO;
			else if (pflag & TARGET_O_TRUNC)
 8001d50:	0570      	lsls	r0, r6, #21
				ret = STDOUT_FILENO;
			else
				ret = STDERR_FILENO;
 8001d52:	0fc0      	lsrs	r0, r0, #31
 8001d54:	1a18      	subs	r0, r3, r0
			ret++;
 8001d56:	3001      	adds	r0, #1
 8001d58:	e07f      	b.n	8001e5a <cortexm_halt_poll+0x392>
			break;
		}

		ret = tc_open(t, params[0], params[2] + 1, pflag, 0644);
 8001d5a:	21d2      	movs	r1, #210	; 0xd2
 8001d5c:	6e7a      	ldr	r2, [r7, #100]	; 0x64
 8001d5e:	0049      	lsls	r1, r1, #1
 8001d60:	9100      	str	r1, [sp, #0]
 8001d62:	3201      	adds	r2, #1
 8001d64:	b2b3      	uxth	r3, r6
 8001d66:	6cf8      	ldr	r0, [r7, #76]	; 0x4c
 8001d68:	6df9      	ldr	r1, [r7, #92]	; 0x5c
 8001d6a:	f006 fc69 	bl	8008640 <tc_open>
		if (ret != -1)
			ret++;
 8001d6e:	1c43      	adds	r3, r0, #1
 8001d70:	1e5a      	subs	r2, r3, #1
 8001d72:	4193      	sbcs	r3, r2
 8001d74:	18c0      	adds	r0, r0, r3
 8001d76:	e070      	b.n	8001e5a <cortexm_halt_poll+0x392>
		break;
		}
	case SYS_CLOSE:	/* close */
		ret = tc_close(t, params[0] - 1);
 8001d78:	6dfb      	ldr	r3, [r7, #92]	; 0x5c
 8001d7a:	6cf8      	ldr	r0, [r7, #76]	; 0x4c
 8001d7c:	1e59      	subs	r1, r3, #1
 8001d7e:	f006 fc6e 	bl	800865e <tc_close>
 8001d82:	e06a      	b.n	8001e5a <cortexm_halt_poll+0x392>
		break;
	case SYS_READ:	/* read */
		ret = tc_read(t, params[0] - 1, params[1], params[2]);
 8001d84:	6dfb      	ldr	r3, [r7, #92]	; 0x5c
 8001d86:	6cf8      	ldr	r0, [r7, #76]	; 0x4c
 8001d88:	1e59      	subs	r1, r3, #1
 8001d8a:	6e3a      	ldr	r2, [r7, #96]	; 0x60
 8001d8c:	6e7b      	ldr	r3, [r7, #100]	; 0x64
 8001d8e:	f006 fc73 	bl	8008678 <tc_read>
 8001d92:	e006      	b.n	8001da2 <cortexm_halt_poll+0x2da>
		if (ret > 0)
			ret = params[2] - ret;
		break;
	case SYS_WRITE:	/* write */
		ret = tc_write(t, params[0] - 1, params[1], params[2]);
 8001d94:	6dfb      	ldr	r3, [r7, #92]	; 0x5c
 8001d96:	6cf8      	ldr	r0, [r7, #76]	; 0x4c
 8001d98:	1e59      	subs	r1, r3, #1
 8001d9a:	6e3a      	ldr	r2, [r7, #96]	; 0x60
 8001d9c:	6e7b      	ldr	r3, [r7, #100]	; 0x64
 8001d9e:	f006 fc73 	bl	8008688 <tc_write>
		if (ret > 0)
 8001da2:	2800      	cmp	r0, #0
 8001da4:	dd59      	ble.n	8001e5a <cortexm_halt_poll+0x392>
			ret = params[2] - ret;
 8001da6:	6e7b      	ldr	r3, [r7, #100]	; 0x64
 8001da8:	1a18      	subs	r0, r3, r0
 8001daa:	e056      	b.n	8001e5a <cortexm_halt_poll+0x392>
		break;
	case SYS_WRITEC: /* writec */
		ret = tc_write(t, 2, arm_regs[1], 1);
 8001dac:	6cf8      	ldr	r0, [r7, #76]	; 0x4c
 8001dae:	2102      	movs	r1, #2
 8001db0:	6862      	ldr	r2, [r4, #4]
 8001db2:	2301      	movs	r3, #1
 8001db4:	f006 fc68 	bl	8008688 <tc_write>
 8001db8:	e04f      	b.n	8001e5a <cortexm_halt_poll+0x392>
		break;
	case SYS_ISTTY:	/* isatty */
		ret = tc_isatty(t, params[0] - 1);
 8001dba:	6dfb      	ldr	r3, [r7, #92]	; 0x5c
 8001dbc:	6cf8      	ldr	r0, [r7, #76]	; 0x4c
 8001dbe:	1e59      	subs	r1, r3, #1
 8001dc0:	f006 fcad 	bl	800871e <tc_isatty>
 8001dc4:	e049      	b.n	8001e5a <cortexm_halt_poll+0x392>
		break;
	case SYS_SEEK:	/* lseek */
		ret = tc_lseek(t, params[0] - 1, params[1], TARGET_SEEK_SET);
 8001dc6:	6dfb      	ldr	r3, [r7, #92]	; 0x5c
 8001dc8:	6cf8      	ldr	r0, [r7, #76]	; 0x4c
 8001dca:	1e59      	subs	r1, r3, #1
 8001dcc:	6e3a      	ldr	r2, [r7, #96]	; 0x60
 8001dce:	2300      	movs	r3, #0
 8001dd0:	f006 fc62 	bl	8008698 <tc_lseek>
 8001dd4:	e041      	b.n	8001e5a <cortexm_halt_poll+0x392>
		break;
	case SYS_RENAME:/* rename */
		ret = tc_rename(t, params[0] - 1, params[1] + 1,
 8001dd6:	6dfb      	ldr	r3, [r7, #92]	; 0x5c
 8001dd8:	1e59      	subs	r1, r3, #1
 8001dda:	6e3b      	ldr	r3, [r7, #96]	; 0x60
 8001ddc:	617b      	str	r3, [r7, #20]
 8001dde:	1c5a      	adds	r2, r3, #1
				params[2], params[3] + 1);
 8001de0:	6ebb      	ldr	r3, [r7, #104]	; 0x68
 8001de2:	613b      	str	r3, [r7, #16]
 8001de4:	3301      	adds	r3, #1
		break;
	case SYS_SEEK:	/* lseek */
		ret = tc_lseek(t, params[0] - 1, params[1], TARGET_SEEK_SET);
		break;
	case SYS_RENAME:/* rename */
		ret = tc_rename(t, params[0] - 1, params[1] + 1,
 8001de6:	9300      	str	r3, [sp, #0]
 8001de8:	6cf8      	ldr	r0, [r7, #76]	; 0x4c
 8001dea:	6e7b      	ldr	r3, [r7, #100]	; 0x64
 8001dec:	f006 fc5c 	bl	80086a8 <tc_rename>
 8001df0:	e033      	b.n	8001e5a <cortexm_halt_poll+0x392>
				params[2], params[3] + 1);
		break;
	case SYS_REMOVE:/* unlink */
		ret = tc_unlink(t, params[0] - 1, params[1] + 1);
 8001df2:	6dfb      	ldr	r3, [r7, #92]	; 0x5c
 8001df4:	6cf8      	ldr	r0, [r7, #76]	; 0x4c
 8001df6:	1e59      	subs	r1, r3, #1
 8001df8:	6e3b      	ldr	r3, [r7, #96]	; 0x60
 8001dfa:	1c5a      	adds	r2, r3, #1
 8001dfc:	f006 fc63 	bl	80086c6 <tc_unlink>
 8001e00:	e02b      	b.n	8001e5a <cortexm_halt_poll+0x392>
		break;
	case SYS_SYSTEM:/* system */
		ret = tc_system(t, params[0] - 1, params[1] + 1);
 8001e02:	6dfb      	ldr	r3, [r7, #92]	; 0x5c
 8001e04:	6cf8      	ldr	r0, [r7, #76]	; 0x4c
 8001e06:	1e59      	subs	r1, r3, #1
 8001e08:	6e3b      	ldr	r3, [r7, #96]	; 0x60
 8001e0a:	1c5a      	adds	r2, r3, #1
